Certificate:
    Data:
        Version: 3 (0x2)
        Serial Number: 297 (0x129)
    Signature Algorithm: md5WithRSAEncryption
        Issuer: C=SE, ST=Stockholm, L=Kista, O=RISE, O=Security Lab, OU=5GEnsure, CN=JAKOB/emailAddress=jak@awd.se
        Validity
            Not Before: Apr 22 11:00:12 2019 GMT
            Not After : Apr 21 11:00:12 2020 GMT
        Subject: C=SE, ST=Stockholm, L=Kista, O=RISE, O=Security Lab, OU=5GEnsure, CN=OVS/emailAddress=awdawd@awdawd.se
        Subject Public Key Info:
            Public Key Algorithm: rsaEncryption
                Public-Key: (2048 bit)
                Modulus:
                    00:cc:03:c7:1b:37:ba:20:15:62:1c:1c:87:95:d4:
                    8e:87:ef:86:ff:c3:24:d7:04:f4:46:67:e0:2b:3b:
                    aa:33:e3:cf:c0:45:69:20:60:68:c4:8c:3e:a7:c8:
                    74:c7:af:dd:bf:ad:11:61:0e:d0:10:94:31:32:cb:
                    ef:fd:a4:dc:a7:6b:88:f3:9b:1c:38:a7:00:8a:2d:
                    2e:67:6e:5b:ff:01:c7:9b:c5:cf:e8:59:5b:5e:c3:
                    cd:bf:f5:97:a2:37:cb:40:49:be:40:dc:a8:29:9b:
                    5c:7e:6c:88:b3:9f:8d:38:bf:8c:22:9a:fd:a9:79:
                    f6:6f:07:52:6b:b7:7c:a5:c0:53:46:0d:ac:f2:d7:
                    0e:37:75:83:83:53:30:e2:72:b1:48:68:51:c2:a6:
                    de:e6:a3:ee:9e:f3:24:33:25:34:ec:15:c3:82:2f:
                    c1:0c:28:3f:1b:59:d3:d7:8b:17:85:51:63:d4:a2:
                    7c:58:7b:48:c0:53:9a:ea:53:4f:74:ec:3e:b1:db:
                    ff:b9:62:cb:86:b1:49:11:9a:2e:ac:d6:c5:15:7a:
                    01:b6:31:f2:dd:1a:7a:68:c0:c8:0d:ef:f5:03:61:
                    75:a5:b1:b6:5c:78:af:b1:e0:61:89:a4:13:64:7d:
                    c7:ac:b7:14:c3:1a:e9:56:92:c0:2c:5c:1e:7f:62:
                    99:bf
                Exponent: 65537 (0x10001)
        X509v3 extensions:
            X509v3 Basic Constraints:
                CA:FALSE
            Netscape Comment:
                OpenSSL Generated Certificate
            X509v3 Subject Key Identifier:
                65:C6:7C:0A:AA:EE:16:25:C0:87:A8:75:54:50:D5:ED:82:9A:07:2D
            X509v3 Authority Key Identifier:
                keyid:B4:D7:AB:EC:E5:2E:6A:AC:E7:34:05:2A:49:3C:14:26:91:D2:35:CE
                DirName:/C=SE/ST=Stockholm/L=Kista/O=RISE/O=Security Lab/OU=5GEnsure/CN=JAKOB/emailAddress=jak@awd.se
                serial:CD:C2:FA:57:9F:18:2A:21

    Signature Algorithm: md5WithRSAEncryption
         a6:f0:e7:b0:63:38:63:72:6d:a9:63:00:ca:7e:0c:75:5c:c8:
         f5:63:5d:cf:a5:95:cb:c9:7b:d2:09:ea:0a:bf:20:41:ae:ca:
         06:09:98:a9:f2:90:a3:48:95:ee:8c:47:9a:80:7d:7e:5d:17:
         31:5c:f9:32:5c:6c:18:b8:f7:6f:89:b1:30:03:05:c2:16:a1:
         d7:76:ec:2b:ae:18:fb:9d:b4:1e:e0:9d:e0:d7:51:1b:09:ad:
         ce:69:79:62:2c:ec:71:0e:51:95:87:12:7e:3b:2a:41:73:ab:
         be:57:90:f0:77:f7:40:4c:cf:25:de:c6:38:1a:93:ad:36:f1:
         ae:8e
-----BEGIN CERTIFICATE-----
MIIEVjCCA7+gAwIBAgICASkwDQYJKoZIhvcNAQEEBQAwgZUxCzAJBgNVBAYTAlNF
MRIwEAYDVQQIEwlTdG9ja2hvbG0xDjAMBgNVBAcTBUtpc3RhMQ0wCwYDVQQKEwRS
SVNFMRUwEwYDVQQKEwxTZWN1cml0eSBMYWIxETAPBgNVBAsTCDVHRW5zdXJlMQ4w
DAYDVQQDEwVKQUtPQjEZMBcGCSqGSIb3DQEJARYKamFrQGF3ZC5zZTAeFw0xOTA0
MjIxMTAwMTJaFw0yMDA0MjExMTAwMTJaMIGZMQswCQYDVQQGEwJTRTESMBAGA1UE
CBMJU3RvY2tob2xtMQ4wDAYDVQQHEwVLaXN0YTENMAsGA1UEChMEUklTRTEVMBMG
A1UEChMMU2VjdXJpdHkgTGFiMREwDwYDVQQLEwg1R0Vuc3VyZTEMMAoGA1UEAxMD
T1ZTMR8wHQYJKoZIhvcNAQkBFhBhd2Rhd2RAYXdkYXdkLnNlMIIBIjANBgkqhkiG
9w0BAQEFAAOCAQ8AMIIBCgKCAQEAzAPHGze6IBViHByHldSOh++G/8Mk1wT0Rmfg
KzuqM+PPwEVpIGBoxIw+p8h0x6/dv60RYQ7QEJQxMsvv/aTcp2uI85scOKcAii0u
Z25b/wHHm8XP6FlbXsPNv/WXojfLQEm+QNyoKZtcfmyIs5+NOL+MIpr9qXn2bwdS
a7d8pcBTRg2s8tcON3WDg1Mw4nKxSGhRwqbe5qPunvMkMyU07BXDgi/BDCg/G1nT
14sXhVFj1KJ8WHtIwFOa6lNPdOw+sdv/uWLLhrFJEZourNbFFXoBtjHy3Rp6aMDI
De/1A2F1pbG2XHivseBhiaQTZH3HrLcUwxrpVpLALFwef2KZvwIDAQABo4IBKTCC
ASUwCQYDVR0TBAIwADAsBglghkgBhvhCAQ0EHxYdT3BlblNTTCBHZW5lcmF0ZWQg
Q2VydGlmaWNhdGUwHQYDVR0OBBYEFGXGfAqq7hYlwIeodVRQ1e2CmgctMIHKBgNV
HSMEgcIwgb+AFLTXq+zlLmqs5zQFKkk8FCaR0jXOoYGbpIGYMIGVMQswCQYDVQQG
EwJTRTESMBAGA1UECBMJU3RvY2tob2xtMQ4wDAYDVQQHEwVLaXN0YTENMAsGA1UE
ChMEUklTRTEVMBMGA1UEChMMU2VjdXJpdHkgTGFiMREwDwYDVQQLEwg1R0Vuc3Vy
ZTEOMAwGA1UEAxMFSkFLT0IxGTAXBgkqhkiG9w0BCQEWCmpha0Bhd2Quc2WCCQDN
wvpXnxgqITANBgkqhkiG9w0BAQQFAAOBgQCm8OewYzhjcm2pYwDKfgx1XMj1Y13P
pZXLyXvSCeoKvyBBrsoGCZip8pCjSJXujEeagH1+XRcxXPkyXGwYuPdvibEwAwXC
FqHXduwrrhj7nbQe4J3g11EbCa3OaXliLOxxDlGVhxJ+OypBc6u+V5Dwd/dATM8l
3sY4GpOtNvGujg==
-----END CERTIFICATE-----
