Certificate:
    Data:
        Version: 3 (0x2)
        Serial Number: 11 (0xb)
    Signature Algorithm: md5WithRSAEncryption
        Issuer: C=SE, ST=Stockholm, L=Kista, O=RISE, O=Security Lab, OU=5GEnsure
        Validity
            Not Before: Apr  4 12:01:29 2019 GMT
            Not After : Apr  3 12:01:29 2020 GMT
        Subject: CN=openvswitch
        Subject Public Key Info:
            Public Key Algorithm: rsaEncryption
                Public-Key: (2048 bit)
                Modulus:
                    00:9f:f0:3c:01:a1:e0:e5:0a:ce:9b:37:fa:b0:28:
                    e5:ca:96:94:4f:52:8d:5a:ab:20:34:8f:36:f0:3c:
                    bc:7e:26:e6:0b:c3:c2:07:ac:25:af:9b:7a:1b:2a:
                    ad:2e:5a:76:aa:de:17:b0:a9:71:8a:5f:9b:29:73:
                    c3:0d:0a:2b:bf:c8:0d:96:e7:c8:21:ab:0d:67:f7:
                    99:bd:6a:e6:fa:92:48:4e:1f:b5:e8:40:c6:d8:35:
                    f3:b5:6b:1a:94:93:c1:e5:f4:08:b0:d5:b4:4d:82:
                    5a:32:75:6c:26:5e:01:d9:db:20:ce:38:be:00:dd:
                    d1:04:98:0d:24:8f:c5:00:23:35:77:32:f8:20:32:
                    de:4c:09:fa:bf:5c:54:12:d9:85:ff:49:5e:9c:69:
                    3c:29:03:02:72:3d:94:ca:f6:94:f1:25:83:42:9f:
                    ca:b2:58:c9:25:20:54:cc:d8:32:f7:a4:ce:5a:1c:
                    15:77:91:66:41:bb:9c:e1:f5:43:1d:40:60:11:3c:
                    8a:06:d8:1d:65:dd:8b:a2:ca:34:79:5b:03:b3:cf:
                    ce:02:8f:06:b0:07:21:e4:39:c2:92:4e:a5:b3:5c:
                    9c:b1:f4:fa:ad:78:11:ec:f5:f9:94:50:99:e7:2d:
                    bf:d1:8b:98:44:05:4f:52:c6:de:b1:c0:38:ba:10:
                    c4:65
                Exponent: 65537 (0x10001)
        X509v3 extensions:
            X509v3 Basic Constraints: 
                CA:FALSE
            Netscape Comment: 
                OpenSSL Generated Certificate
            X509v3 Subject Key Identifier: 
                B3:C8:E8:BF:B6:07:8B:C3:8C:51:D8:7D:65:47:14:57:8E:02:45:18
            X509v3 Authority Key Identifier: 
                keyid:5A:B5:A5:79:95:34:08:FB:4C:17:60:D3:92:88:E7:81:76:C6:B4:3D
                DirName:/C=SE/ST=Stockholm/L=Kista/O=RISE/O=Security Lab/OU=5GEnsure
                serial:B2:DC:A2:EA:37:CA:3A:E6

    Signature Algorithm: md5WithRSAEncryption
         18:49:7f:9d:8a:c9:3e:b0:04:eb:91:0e:56:eb:81:c7:eb:a0:
         4f:db:21:94:b4:71:ce:64:3f:3d:c0:3a:11:bc:49:05:7a:74:
         6b:53:4e:bc:6e:57:2c:f1:2f:47:31:02:e9:5d:f2:c6:fd:22:
         08:c1:f4:0e:58:ae:0e:49:73:83:b1:e3:dc:c5:b7:ec:d5:d7:
         23:24:95:7c:c2:3e:78:f8:4b:ac:6b:fc:f5:80:10:cd:e4:33:
         61:da:28:a2:d6:18:18:18:5b:8e:6f:f3:80:aa:12:cb:d2:ae:
         13:03:31:e5:89:7f:41:c3:48:7b:62:49:82:e9:96:2e:25:df:
         c8:b2
-----BEGIN CERTIFICATE-----
MIIDdTCCAt6gAwIBAgIBCzANBgkqhkiG9w0BAQQFADBqMQswCQYDVQQGEwJTRTES
MBAGA1UECBMJU3RvY2tob2xtMQ4wDAYDVQQHEwVLaXN0YTENMAsGA1UEChMEUklT
RTEVMBMGA1UEChMMU2VjdXJpdHkgTGFiMREwDwYDVQQLEwg1R0Vuc3VyZTAeFw0x
OTA0MDQxMjAxMjlaFw0yMDA0MDMxMjAxMjlaMBYxFDASBgNVBAMTC29wZW52c3dp
dGNoMIIBIjANBgkqhkiG9w0BAQEFAAOCAQ8AMIIBCgKCAQEAn/A8AaHg5QrOmzf6
sCjlypaUT1KNWqsgNI828Dy8fibmC8PCB6wlr5t6GyqtLlp2qt4XsKlxil+bKXPD
DQorv8gNlufIIasNZ/eZvWrm+pJITh+16EDG2DXztWsalJPB5fQIsNW0TYJaMnVs
Jl4B2dsgzji+AN3RBJgNJI/FACM1dzL4IDLeTAn6v1xUEtmF/0lenGk8KQMCcj2U
yvaU8SWDQp/KsljJJSBUzNgy96TOWhwVd5FmQbuc4fVDHUBgETyKBtgdZd2Loso0
eVsDs8/OAo8GsAch5DnCkk6ls1ycsfT6rXgR7PX5lFCZ5y2/0YuYRAVPUsbescA4
uhDEZQIDAQABo4H6MIH3MAkGA1UdEwQCMAAwLAYJYIZIAYb4QgENBB8WHU9wZW5T
U0wgR2VuZXJhdGVkIENlcnRpZmljYXRlMB0GA1UdDgQWBBSzyOi/tgeLw4xR2H1l
RxRXjgJFGDCBnAYDVR0jBIGUMIGRgBRataV5lTQI+0wXYNOSiOeBdsa0PaFupGww
ajELMAkGA1UEBhMCU0UxEjAQBgNVBAgTCVN0b2NraG9sbTEOMAwGA1UEBxMFS2lz
dGExDTALBgNVBAoTBFJJU0UxFTATBgNVBAoTDFNlY3VyaXR5IExhYjERMA8GA1UE
CxMINUdFbnN1cmWCCQCy3KLqN8o65jANBgkqhkiG9w0BAQQFAAOBgQAYSX+disk+
sATrkQ5W64HH66BP2yGUtHHOZD89wDoRvEkFenRrU068blcs8S9HMQLpXfLG/SII
wfQOWK4OSXODsePcxbfs1dcjJJV8wj54+Eusa/z1gBDN5DNh2iii1hgYGFuOb/OA
qhLL0q4TAzHliX9Bw0h7YkmC6ZYuJd/Isg==
-----END CERTIFICATE-----
