Certificate:
    Data:
        Version: 3 (0x2)
        Serial Number: 12 (0xc)
    Signature Algorithm: md5WithRSAEncryption
        Issuer: C=SE, ST=Stockholm, L=Kista, O=RISE, O=Security Lab, OU=5GEnsure
        Validity
            Not Before: Apr  4 12:16:26 2019 GMT
            Not After : Apr  3 12:16:26 2020 GMT
        Subject: CN=openvswitch
        Subject Public Key Info:
            Public Key Algorithm: rsaEncryption
                Public-Key: (2048 bit)
                Modulus:
                    00:d1:fc:82:09:66:c9:fd:06:c6:81:a9:fb:d2:43:
                    42:d9:2f:1e:72:9a:4f:93:9a:5f:fe:94:29:77:88:
                    90:b2:96:3f:f8:9d:9a:44:3f:78:24:72:89:84:33:
                    5a:90:75:84:4f:34:a7:1b:7d:2a:5f:32:60:4d:7e:
                    13:f8:c3:30:e3:f5:b3:64:e7:41:a6:d7:84:b9:fe:
                    43:1d:8a:a4:37:fc:a4:b3:13:e5:7d:31:0c:53:62:
                    e3:f7:c7:02:68:b5:7a:c0:bb:37:3c:16:6b:67:01:
                    3f:c6:1b:7e:d9:83:ed:de:5e:fb:27:dc:1d:34:f9:
                    74:82:90:16:38:31:a1:22:de:8e:16:c3:ec:94:6d:
                    d4:52:7c:2b:55:49:49:2e:d3:68:59:25:15:8a:b2:
                    45:7e:29:60:6b:91:b8:9e:a5:e2:eb:cb:83:b3:b6:
                    3f:19:25:f5:c7:20:9c:3d:2c:5f:16:df:55:6f:85:
                    4c:da:99:02:d1:4a:f0:c2:d2:3a:9d:91:d0:a7:0f:
                    05:ca:0c:d2:ca:65:43:8b:64:63:fc:b7:b5:a5:09:
                    20:fc:82:23:dd:ad:8d:33:8e:08:be:5c:b4:99:7e:
                    0c:15:35:75:2e:20:cd:ca:d6:11:4e:3b:72:f9:4e:
                    06:1e:66:c9:c3:86:f8:05:f0:82:0c:c3:35:19:6b:
                    de:a1
                Exponent: 65537 (0x10001)
        X509v3 extensions:
            X509v3 Basic Constraints: 
                CA:FALSE
            Netscape Comment: 
                OpenSSL Generated Certificate
            X509v3 Subject Key Identifier: 
                A2:4B:6D:43:BD:CE:7D:00:5A:F1:5C:48:13:C7:AA:3F:52:EE:A7:83
            X509v3 Authority Key Identifier: 
                keyid:5A:B5:A5:79:95:34:08:FB:4C:17:60:D3:92:88:E7:81:76:C6:B4:3D
                DirName:/C=SE/ST=Stockholm/L=Kista/O=RISE/O=Security Lab/OU=5GEnsure
                serial:B2:DC:A2:EA:37:CA:3A:E6

    Signature Algorithm: md5WithRSAEncryption
         5b:6e:eb:19:75:64:68:db:17:46:75:b6:cf:72:ac:90:0b:e7:
         69:d3:cd:87:8f:4a:9f:57:d2:0c:36:0c:95:61:7e:10:8c:67:
         24:ed:06:5e:91:e7:24:57:33:41:8a:3a:ec:73:06:cd:d5:23:
         39:8b:27:61:16:40:8a:a7:a0:d7:ad:dc:64:0d:58:74:25:66:
         69:c9:f4:6e:2b:a9:88:76:df:07:6f:76:96:c0:67:14:a9:34:
         50:44:16:ba:22:21:9c:df:46:8e:24:ea:6d:50:b7:18:75:82:
         7c:7c:52:1c:b4:90:21:ca:4a:20:3f:a0:a9:fe:49:76:03:78:
         84:4f
-----BEGIN CERTIFICATE-----
MIIDdTCCAt6gAwIBAgIBDDANBgkqhkiG9w0BAQQFADBqMQswCQYDVQQGEwJTRTES
MBAGA1UECBMJU3RvY2tob2xtMQ4wDAYDVQQHEwVLaXN0YTENMAsGA1UEChMEUklT
RTEVMBMGA1UEChMMU2VjdXJpdHkgTGFiMREwDwYDVQQLEwg1R0Vuc3VyZTAeFw0x
OTA0MDQxMjE2MjZaFw0yMDA0MDMxMjE2MjZaMBYxFDASBgNVBAMTC29wZW52c3dp
dGNoMIIBIjANBgkqhkiG9w0BAQEFAAOCAQ8AMIIBCgKCAQEA0fyCCWbJ/QbGgan7
0kNC2S8ecppPk5pf/pQpd4iQspY/+J2aRD94JHKJhDNakHWETzSnG30qXzJgTX4T
+MMw4/WzZOdBpteEuf5DHYqkN/yksxPlfTEMU2Lj98cCaLV6wLs3PBZrZwE/xht+
2YPt3l77J9wdNPl0gpAWODGhIt6OFsPslG3UUnwrVUlJLtNoWSUVirJFfilga5G4
nqXi68uDs7Y/GSX1xyCcPSxfFt9Vb4VM2pkC0UrwwtI6nZHQpw8FygzSymVDi2Rj
/Le1pQkg/IIj3a2NM44Ivly0mX4MFTV1LiDNytYRTjty+U4GHmbJw4b4BfCCDMM1
GWveoQIDAQABo4H6MIH3MAkGA1UdEwQCMAAwLAYJYIZIAYb4QgENBB8WHU9wZW5T
U0wgR2VuZXJhdGVkIENlcnRpZmljYXRlMB0GA1UdDgQWBBSiS21Dvc59AFrxXEgT
x6o/Uu6ngzCBnAYDVR0jBIGUMIGRgBRataV5lTQI+0wXYNOSiOeBdsa0PaFupGww
ajELMAkGA1UEBhMCU0UxEjAQBgNVBAgTCVN0b2NraG9sbTEOMAwGA1UEBxMFS2lz
dGExDTALBgNVBAoTBFJJU0UxFTATBgNVBAoTDFNlY3VyaXR5IExhYjERMA8GA1UE
CxMINUdFbnN1cmWCCQCy3KLqN8o65jANBgkqhkiG9w0BAQQFAAOBgQBbbusZdWRo
2xdGdbbPcqyQC+dp082Hj0qfV9IMNgyVYX4QjGck7QZekeckVzNBijrscwbN1SM5
iydhFkCKp6DXrdxkDVh0JWZpyfRuK6mIdt8Hb3aWwGcUqTRQRBa6IiGc30aOJOpt
ULcYdYJ8fFIctJAhykogP6Cp/kl2A3iETw==
-----END CERTIFICATE-----
