Certificate:
    Data:
        Version: 3 (0x2)
        Serial Number: 13 (0xd)
    Signature Algorithm: md5WithRSAEncryption
        Issuer: C=SE, ST=Stockholm, L=Kista, O=RISE, O=Security Lab, OU=5GEnsure
        Validity
            Not Before: Apr  4 12:19:33 2019 GMT
            Not After : Apr  3 12:19:33 2020 GMT
        Subject: CN=openvswitch
        Subject Public Key Info:
            Public Key Algorithm: rsaEncryption
                Public-Key: (2048 bit)
                Modulus:
                    00:86:da:50:d4:8e:ff:8c:79:ea:05:3e:18:e0:3a:
                    35:c0:8f:2c:71:04:66:a6:84:fb:6a:30:53:7e:f3:
                    e1:57:00:43:8a:07:ec:6c:04:38:f5:12:c7:f4:8d:
                    ed:b5:a1:b0:1b:35:0f:1f:61:cd:98:1b:ad:1a:bf:
                    7f:2d:54:db:77:5e:bf:a1:b2:b7:e0:5e:3b:61:37:
                    e7:44:ce:92:31:db:ef:ed:00:13:45:90:9e:ca:1f:
                    3a:d3:93:6e:38:c0:9c:37:95:99:49:a3:12:3e:22:
                    5e:6a:e4:88:37:2a:2c:ba:8b:69:95:0b:11:ed:a7:
                    1d:84:46:e9:b0:5b:bb:56:53:fc:52:24:94:3a:d1:
                    2d:67:5a:2f:b1:05:50:00:3c:08:c4:37:7d:f0:5c:
                    61:e1:ec:f3:d0:19:c8:b4:db:4a:38:5b:b0:09:be:
                    15:a9:50:e5:c0:68:96:d2:40:15:90:56:cd:a8:c5:
                    ad:80:78:b3:a4:d2:3f:5c:ee:e7:b9:e8:c7:52:3f:
                    0a:13:da:7d:73:be:92:cd:4d:15:69:e6:de:20:e1:
                    dd:df:d6:be:42:02:cf:29:b6:ea:f6:b7:a7:bd:03:
                    ea:ae:10:ec:ae:18:e4:12:26:5a:0c:be:6b:8f:ec:
                    43:40:92:f3:f3:dd:40:3f:95:fa:48:29:63:ef:d4:
                    8b:dd
                Exponent: 65537 (0x10001)
        X509v3 extensions:
            X509v3 Basic Constraints: 
                CA:FALSE
            Netscape Comment: 
                OpenSSL Generated Certificate
            X509v3 Subject Key Identifier: 
                BD:82:46:4F:B6:1C:A2:0E:BD:44:7E:3C:47:12:EF:78:F9:D5:0E:B2
            X509v3 Authority Key Identifier: 
                keyid:5A:B5:A5:79:95:34:08:FB:4C:17:60:D3:92:88:E7:81:76:C6:B4:3D
                DirName:/C=SE/ST=Stockholm/L=Kista/O=RISE/O=Security Lab/OU=5GEnsure
                serial:B2:DC:A2:EA:37:CA:3A:E6

    Signature Algorithm: md5WithRSAEncryption
         b8:17:b1:3a:5a:02:da:2c:3c:0c:d1:74:49:c1:2d:0b:8f:b7:
         57:4a:26:58:d9:34:7c:17:18:75:6d:9f:b0:48:86:33:bb:19:
         ee:00:7e:fb:53:e8:22:e6:51:83:03:3c:d3:12:94:cb:41:2f:
         8e:25:b8:e8:18:9e:c8:5e:9d:7e:c2:09:d0:ec:cf:bc:c4:06:
         e2:2d:07:4f:7d:13:0a:72:52:44:41:79:6e:e0:72:2a:ba:19:
         cf:b3:f7:63:ed:ba:bf:dd:cd:76:db:a7:a0:6f:7d:e0:34:fd:
         5a:1d:d7:21:ba:e1:ea:c1:c7:ab:17:24:0d:e8:a8:7f:d0:81:
         25:8c
-----BEGIN CERTIFICATE-----
MIIDdTCCAt6gAwIBAgIBDTANBgkqhkiG9w0BAQQFADBqMQswCQYDVQQGEwJTRTES
MBAGA1UECBMJU3RvY2tob2xtMQ4wDAYDVQQHEwVLaXN0YTENMAsGA1UEChMEUklT
RTEVMBMGA1UEChMMU2VjdXJpdHkgTGFiMREwDwYDVQQLEwg1R0Vuc3VyZTAeFw0x
OTA0MDQxMjE5MzNaFw0yMDA0MDMxMjE5MzNaMBYxFDASBgNVBAMTC29wZW52c3dp
dGNoMIIBIjANBgkqhkiG9w0BAQEFAAOCAQ8AMIIBCgKCAQEAhtpQ1I7/jHnqBT4Y
4Do1wI8scQRmpoT7ajBTfvPhVwBDigfsbAQ49RLH9I3ttaGwGzUPH2HNmButGr9/
LVTbd16/obK34F47YTfnRM6SMdvv7QATRZCeyh8605NuOMCcN5WZSaMSPiJeauSI
NyosuotplQsR7acdhEbpsFu7VlP8UiSUOtEtZ1ovsQVQADwIxDd98Fxh4ezz0BnI
tNtKOFuwCb4VqVDlwGiW0kAVkFbNqMWtgHizpNI/XO7nuejHUj8KE9p9c76SzU0V
aebeIOHd39a+QgLPKbbq9renvQPqrhDsrhjkEiZaDL5rj+xDQJLz891AP5X6SClj
79SL3QIDAQABo4H6MIH3MAkGA1UdEwQCMAAwLAYJYIZIAYb4QgENBB8WHU9wZW5T
U0wgR2VuZXJhdGVkIENlcnRpZmljYXRlMB0GA1UdDgQWBBS9gkZPthyiDr1EfjxH
Eu94+dUOsjCBnAYDVR0jBIGUMIGRgBRataV5lTQI+0wXYNOSiOeBdsa0PaFupGww
ajELMAkGA1UEBhMCU0UxEjAQBgNVBAgTCVN0b2NraG9sbTEOMAwGA1UEBxMFS2lz
dGExDTALBgNVBAoTBFJJU0UxFTATBgNVBAoTDFNlY3VyaXR5IExhYjERMA8GA1UE
CxMINUdFbnN1cmWCCQCy3KLqN8o65jANBgkqhkiG9w0BAQQFAAOBgQC4F7E6WgLa
LDwM0XRJwS0Lj7dXSiZY2TR8Fxh1bZ+wSIYzuxnuAH77U+gi5lGDAzzTEpTLQS+O
JbjoGJ7IXp1+wgnQ7M+8xAbiLQdPfRMKclJEQXlu4HIquhnPs/dj7bq/3c1226eg
b33gNP1aHdchuuHqwcerFyQN6Kh/0IEljA==
-----END CERTIFICATE-----
