Certificate:
    Data:
        Version: 3 (0x2)
        Serial Number: 14 (0xe)
    Signature Algorithm: md5WithRSAEncryption
        Issuer: C=SE, ST=Stockholm, L=Kista, O=RISE, O=Security Lab, OU=5GEnsure
        Validity
            Not Before: Apr  4 12:21:04 2019 GMT
            Not After : Apr  3 12:21:04 2020 GMT
        Subject: CN=openvswitch
        Subject Public Key Info:
            Public Key Algorithm: rsaEncryption
                Public-Key: (2048 bit)
                Modulus:
                    00:d1:0c:5b:4f:df:34:d7:2d:a3:98:65:a4:10:66:
                    47:74:02:f5:95:f2:cc:fc:a0:05:0b:45:71:ae:d9:
                    57:83:a2:6a:41:9d:2e:53:96:5b:ff:1d:3c:97:da:
                    22:e5:67:96:13:f6:8e:b0:fc:e9:0a:c0:79:5f:94:
                    f9:1b:bb:89:cd:60:83:89:c1:6a:ec:ac:58:2a:1d:
                    e2:e7:51:f3:d8:b8:03:2f:01:a5:58:18:78:0e:5b:
                    2a:ae:f3:d9:5f:e8:8a:66:5d:43:c2:f7:82:14:49:
                    9b:01:e4:a4:fd:8a:8c:c8:d1:b1:df:47:db:be:dc:
                    9b:5d:44:7a:5e:8f:91:c4:86:72:ce:3f:4c:46:70:
                    f2:27:bc:ff:2c:eb:07:25:be:63:3b:fc:29:b1:9d:
                    41:8b:e9:e6:a1:e5:a0:b7:32:2d:66:3d:24:6e:55:
                    03:5f:c9:b9:8b:ce:ab:fd:7e:74:b6:ed:84:d9:29:
                    00:bd:8e:6e:a2:60:b7:d6:e5:af:0e:25:84:73:01:
                    ec:3f:6e:3d:0c:63:5e:04:c1:97:5e:87:5f:fe:e2:
                    be:9e:18:b4:b9:fd:9d:9d:78:c1:91:5c:0f:a5:31:
                    20:ad:6a:f4:64:9d:20:5c:d6:51:9d:08:83:2b:dc:
                    e6:52:c4:a6:e0:57:6e:4c:4c:e1:70:06:89:24:64:
                    da:0b
                Exponent: 65537 (0x10001)
        X509v3 extensions:
            X509v3 Basic Constraints: 
                CA:FALSE
            Netscape Comment: 
                OpenSSL Generated Certificate
            X509v3 Subject Key Identifier: 
                CB:70:20:FD:98:03:7E:00:2F:C2:3A:FB:75:38:C9:9B:40:D3:17:42
            X509v3 Authority Key Identifier: 
                keyid:5A:B5:A5:79:95:34:08:FB:4C:17:60:D3:92:88:E7:81:76:C6:B4:3D
                DirName:/C=SE/ST=Stockholm/L=Kista/O=RISE/O=Security Lab/OU=5GEnsure
                serial:B2:DC:A2:EA:37:CA:3A:E6

    Signature Algorithm: md5WithRSAEncryption
         18:32:06:89:e4:f4:3e:38:58:20:73:ad:ab:e7:7b:24:75:ee:
         e2:ac:8c:93:90:3f:6f:87:61:44:c4:fb:94:d3:33:b2:fe:03:
         0b:ee:61:4c:5a:1f:fa:9d:e6:b1:6d:f7:65:b2:d3:30:1e:36:
         d5:e7:51:4a:db:77:6d:65:af:a2:b9:e8:fb:57:56:2f:74:25:
         9a:00:f9:fb:40:8a:ef:94:a1:7e:28:61:88:5b:84:fc:96:aa:
         be:68:86:1e:53:ce:8e:bc:42:d9:2c:f8:f6:f0:41:b0:da:ab:
         0a:7f:db:ed:cb:63:0c:3e:2f:ab:f3:eb:e0:9f:d5:60:8c:97:
         b4:ab
-----BEGIN CERTIFICATE-----
MIIDdTCCAt6gAwIBAgIBDjANBgkqhkiG9w0BAQQFADBqMQswCQYDVQQGEwJTRTES
MBAGA1UECBMJU3RvY2tob2xtMQ4wDAYDVQQHEwVLaXN0YTENMAsGA1UEChMEUklT
RTEVMBMGA1UEChMMU2VjdXJpdHkgTGFiMREwDwYDVQQLEwg1R0Vuc3VyZTAeFw0x
OTA0MDQxMjIxMDRaFw0yMDA0MDMxMjIxMDRaMBYxFDASBgNVBAMTC29wZW52c3dp
dGNoMIIBIjANBgkqhkiG9w0BAQEFAAOCAQ8AMIIBCgKCAQEA0QxbT9801y2jmGWk
EGZHdAL1lfLM/KAFC0VxrtlXg6JqQZ0uU5Zb/x08l9oi5WeWE/aOsPzpCsB5X5T5
G7uJzWCDicFq7KxYKh3i51Hz2LgDLwGlWBh4DlsqrvPZX+iKZl1DwveCFEmbAeSk
/YqMyNGx30fbvtybXUR6Xo+RxIZyzj9MRnDyJ7z/LOsHJb5jO/wpsZ1Bi+nmoeWg
tzItZj0kblUDX8m5i86r/X50tu2E2SkAvY5uomC31uWvDiWEcwHsP249DGNeBMGX
Xodf/uK+nhi0uf2dnXjBkVwPpTEgrWr0ZJ0gXNZRnQiDK9zmUsSm4FduTEzhcAaJ
JGTaCwIDAQABo4H6MIH3MAkGA1UdEwQCMAAwLAYJYIZIAYb4QgENBB8WHU9wZW5T
U0wgR2VuZXJhdGVkIENlcnRpZmljYXRlMB0GA1UdDgQWBBTLcCD9mAN+AC/COvt1
OMmbQNMXQjCBnAYDVR0jBIGUMIGRgBRataV5lTQI+0wXYNOSiOeBdsa0PaFupGww
ajELMAkGA1UEBhMCU0UxEjAQBgNVBAgTCVN0b2NraG9sbTEOMAwGA1UEBxMFS2lz
dGExDTALBgNVBAoTBFJJU0UxFTATBgNVBAoTDFNlY3VyaXR5IExhYjERMA8GA1UE
CxMINUdFbnN1cmWCCQCy3KLqN8o65jANBgkqhkiG9w0BAQQFAAOBgQAYMgaJ5PQ+
OFggc62r53skde7irIyTkD9vh2FExPuU0zOy/gML7mFMWh/6neaxbfdlstMwHjbV
51FK23dtZa+iuej7V1YvdCWaAPn7QIrvlKF+KGGIW4T8lqq+aIYeU86OvELZLPj2
8EGw2qsKf9vty2MMPi+r8+vgn9VgjJe0qw==
-----END CERTIFICATE-----
