Certificate:
    Data:
        Version: 3 (0x2)
        Serial Number: 15 (0xf)
    Signature Algorithm: md5WithRSAEncryption
        Issuer: C=SE, ST=Stockholm, L=Kista, O=RISE, O=Security Lab, OU=5GEnsure
        Validity
            Not Before: Apr  4 12:28:42 2019 GMT
            Not After : Apr  3 12:28:42 2020 GMT
        Subject: CN=openvswitch
        Subject Public Key Info:
            Public Key Algorithm: rsaEncryption
                Public-Key: (2048 bit)
                Modulus:
                    00:81:4d:00:35:d2:eb:40:4f:6c:03:ba:b6:a8:67:
                    f3:f6:a9:52:26:a9:c2:ce:72:b9:6c:f4:70:60:63:
                    f4:29:08:91:84:e8:b6:c4:2e:57:fa:e1:f3:eb:b8:
                    71:4b:bd:89:ea:b7:5e:9d:9a:ac:8d:35:72:35:cb:
                    ad:b6:38:7f:b1:98:b7:83:ab:88:bf:b8:2a:b5:47:
                    7b:89:9e:51:5b:87:79:83:4a:87:75:e3:b6:11:d4:
                    66:11:0a:df:13:92:25:87:33:88:e8:5e:b2:b7:9b:
                    21:32:6c:42:74:e7:ba:03:d0:54:a7:21:20:b0:1c:
                    82:84:00:81:1b:aa:f3:fd:66:f8:79:4f:42:37:bd:
                    bb:aa:18:4f:cc:a5:9d:f4:e5:31:ad:89:2e:57:ef:
                    5b:a9:3b:b5:2d:64:06:c8:b4:6e:d7:74:84:3e:c0:
                    a9:5f:89:4d:0b:86:d5:43:b5:fc:6c:30:48:4e:c1:
                    96:ea:9f:cc:f0:b5:f3:a9:aa:b5:3e:c4:3c:e5:fa:
                    0d:7c:f9:53:30:d6:43:d5:34:12:f7:cc:02:f6:93:
                    b5:31:d5:dc:15:44:98:53:68:d0:60:d8:40:b2:8d:
                    b4:39:6f:0d:59:dd:c3:53:09:89:24:34:2f:16:3a:
                    bb:75:b9:d5:bf:71:a3:81:20:ea:51:8e:7f:61:e8:
                    82:15
                Exponent: 65537 (0x10001)
        X509v3 extensions:
            X509v3 Basic Constraints: 
                CA:FALSE
            Netscape Comment: 
                OpenSSL Generated Certificate
            X509v3 Subject Key Identifier: 
                BC:72:61:E2:87:3C:A7:21:70:FF:B1:57:65:7B:68:03:B9:BF:88:67
            X509v3 Authority Key Identifier: 
                keyid:5A:B5:A5:79:95:34:08:FB:4C:17:60:D3:92:88:E7:81:76:C6:B4:3D
                DirName:/C=SE/ST=Stockholm/L=Kista/O=RISE/O=Security Lab/OU=5GEnsure
                serial:B2:DC:A2:EA:37:CA:3A:E6

    Signature Algorithm: md5WithRSAEncryption
         06:39:65:11:7f:a5:03:d6:9b:15:27:37:99:4e:94:36:5d:90:
         70:85:38:fb:77:08:99:bd:5a:48:92:ea:b5:ff:95:ae:0d:70:
         a4:96:10:f1:39:bf:6f:e4:94:37:a5:d1:c5:ec:93:8c:a4:3a:
         ef:66:00:53:55:79:b3:c3:e3:b6:74:4e:69:ab:4a:71:53:45:
         7e:a6:59:40:1b:45:01:f1:48:a6:c1:f9:92:0a:8e:fc:d7:9b:
         0d:64:13:31:5c:37:50:90:74:9d:e4:46:aa:1a:39:0a:6f:8e:
         90:de:07:01:17:71:d9:4e:27:7c:15:df:6e:48:8f:a2:d9:02:
         6a:fe
-----BEGIN CERTIFICATE-----
MIIDdTCCAt6gAwIBAgIBDzANBgkqhkiG9w0BAQQFADBqMQswCQYDVQQGEwJTRTES
MBAGA1UECBMJU3RvY2tob2xtMQ4wDAYDVQQHEwVLaXN0YTENMAsGA1UEChMEUklT
RTEVMBMGA1UEChMMU2VjdXJpdHkgTGFiMREwDwYDVQQLEwg1R0Vuc3VyZTAeFw0x
OTA0MDQxMjI4NDJaFw0yMDA0MDMxMjI4NDJaMBYxFDASBgNVBAMTC29wZW52c3dp
dGNoMIIBIjANBgkqhkiG9w0BAQEFAAOCAQ8AMIIBCgKCAQEAgU0ANdLrQE9sA7q2
qGfz9qlSJqnCznK5bPRwYGP0KQiRhOi2xC5X+uHz67hxS72J6rdenZqsjTVyNcut
tjh/sZi3g6uIv7gqtUd7iZ5RW4d5g0qHdeO2EdRmEQrfE5IlhzOI6F6yt5shMmxC
dOe6A9BUpyEgsByChACBG6rz/Wb4eU9CN727qhhPzKWd9OUxrYkuV+9bqTu1LWQG
yLRu13SEPsCpX4lNC4bVQ7X8bDBITsGW6p/M8LXzqaq1PsQ85foNfPlTMNZD1TQS
98wC9pO1MdXcFUSYU2jQYNhAso20OW8NWd3DUwmJJDQvFjq7dbnVv3GjgSDqUY5/
YeiCFQIDAQABo4H6MIH3MAkGA1UdEwQCMAAwLAYJYIZIAYb4QgENBB8WHU9wZW5T
U0wgR2VuZXJhdGVkIENlcnRpZmljYXRlMB0GA1UdDgQWBBS8cmHihzynIXD/sVdl
e2gDub+IZzCBnAYDVR0jBIGUMIGRgBRataV5lTQI+0wXYNOSiOeBdsa0PaFupGww
ajELMAkGA1UEBhMCU0UxEjAQBgNVBAgTCVN0b2NraG9sbTEOMAwGA1UEBxMFS2lz
dGExDTALBgNVBAoTBFJJU0UxFTATBgNVBAoTDFNlY3VyaXR5IExhYjERMA8GA1UE
CxMINUdFbnN1cmWCCQCy3KLqN8o65jANBgkqhkiG9w0BAQQFAAOBgQAGOWURf6UD
1psVJzeZTpQ2XZBwhTj7dwiZvVpIkuq1/5WuDXCklhDxOb9v5JQ3pdHF7JOMpDrv
ZgBTVXmzw+O2dE5pq0pxU0V+pllAG0UB8UimwfmSCo7815sNZBMxXDdQkHSd5Eaq
GjkKb46Q3gcBF3HZTid8Fd9uSI+i2QJq/g==
-----END CERTIFICATE-----
