Certificate:
    Data:
        Version: 3 (0x2)
        Serial Number: 16 (0x10)
    Signature Algorithm: md5WithRSAEncryption
        Issuer: C=SE, ST=Stockholm, L=Kista, O=RISE, O=Security Lab, OU=5GEnsure
        Validity
            Not Before: Apr  4 12:29:05 2019 GMT
            Not After : Apr  3 12:29:05 2020 GMT
        Subject: CN=openvswitch
        Subject Public Key Info:
            Public Key Algorithm: rsaEncryption
                Public-Key: (2048 bit)
                Modulus:
                    00:96:ce:c8:9a:36:60:4d:01:34:e5:e4:c8:c8:68:
                    a9:65:33:19:96:87:45:f3:3c:41:3c:d2:d2:a9:6e:
                    0b:fe:75:12:72:35:83:73:69:b9:9a:40:e5:64:e5:
                    18:50:a6:66:3a:6a:7b:48:e3:1d:15:81:ea:73:81:
                    fb:3c:0d:7d:bf:dc:54:b9:cc:6d:e0:41:79:29:04:
                    31:78:d2:bc:e5:9c:b3:b2:a3:9d:69:64:c5:c3:df:
                    cb:b0:26:11:af:71:26:9d:e6:a5:60:a0:c5:e6:41:
                    d0:fa:22:bb:76:17:7c:b7:33:19:4a:a5:a5:fa:34:
                    2a:aa:f6:cb:3b:0e:2c:88:81:49:f7:8f:fa:f3:35:
                    fb:9a:a5:d1:4e:f0:29:11:b6:9b:04:35:aa:d5:f2:
                    a9:ae:96:0d:c1:a8:aa:22:3f:b9:f2:5d:34:4d:5a:
                    82:00:b1:24:49:32:8b:34:83:87:d4:9c:be:a3:8f:
                    2d:d9:83:b0:ce:e0:16:b1:d6:95:5e:c3:45:ce:ec:
                    98:ee:32:6d:20:89:22:8f:e0:c7:c7:95:95:cc:80:
                    bf:ee:52:ba:43:b6:ab:77:73:59:f8:cc:60:4b:c9:
                    81:78:8e:71:e7:3c:e8:e5:98:2f:5e:40:8c:ad:c5:
                    2b:8b:75:37:fe:a1:2b:21:e8:95:34:ea:a3:02:af:
                    5a:b3
                Exponent: 65537 (0x10001)
        X509v3 extensions:
            X509v3 Basic Constraints: 
                CA:FALSE
            Netscape Comment: 
                OpenSSL Generated Certificate
            X509v3 Subject Key Identifier: 
                16:87:E3:D5:E7:B8:71:C4:60:9B:92:59:0A:54:8B:CC:32:DE:D9:C7
            X509v3 Authority Key Identifier: 
                keyid:5A:B5:A5:79:95:34:08:FB:4C:17:60:D3:92:88:E7:81:76:C6:B4:3D
                DirName:/C=SE/ST=Stockholm/L=Kista/O=RISE/O=Security Lab/OU=5GEnsure
                serial:B2:DC:A2:EA:37:CA:3A:E6

    Signature Algorithm: md5WithRSAEncryption
         aa:42:6c:7d:b8:27:cf:af:5b:3d:d6:7e:e2:9d:4b:92:6a:64:
         90:20:c6:79:d9:e5:1c:af:04:69:5d:e4:0a:02:7c:82:96:24:
         e8:c7:f6:61:c4:b6:21:02:04:5a:36:17:76:7f:b7:55:02:ee:
         5e:e9:f4:3a:1a:98:81:32:31:6f:2a:eb:95:cc:61:6f:dc:86:
         f1:94:1f:e7:b7:a4:60:cd:0f:bf:76:7a:11:3d:09:83:eb:ac:
         61:28:29:22:0e:7f:65:4d:c1:6d:0c:ec:03:65:f5:f0:a1:c0:
         1b:79:fa:e3:43:57:ec:e7:e1:c0:02:3c:b0:2b:c9:12:58:2b:
         03:44
-----BEGIN CERTIFICATE-----
MIIDdTCCAt6gAwIBAgIBEDANBgkqhkiG9w0BAQQFADBqMQswCQYDVQQGEwJTRTES
MBAGA1UECBMJU3RvY2tob2xtMQ4wDAYDVQQHEwVLaXN0YTENMAsGA1UEChMEUklT
RTEVMBMGA1UEChMMU2VjdXJpdHkgTGFiMREwDwYDVQQLEwg1R0Vuc3VyZTAeFw0x
OTA0MDQxMjI5MDVaFw0yMDA0MDMxMjI5MDVaMBYxFDASBgNVBAMTC29wZW52c3dp
dGNoMIIBIjANBgkqhkiG9w0BAQEFAAOCAQ8AMIIBCgKCAQEAls7ImjZgTQE05eTI
yGipZTMZlodF8zxBPNLSqW4L/nUScjWDc2m5mkDlZOUYUKZmOmp7SOMdFYHqc4H7
PA19v9xUucxt4EF5KQQxeNK85ZyzsqOdaWTFw9/LsCYRr3EmnealYKDF5kHQ+iK7
dhd8tzMZSqWl+jQqqvbLOw4siIFJ94/68zX7mqXRTvApEbabBDWq1fKprpYNwaiq
Ij+58l00TVqCALEkSTKLNIOH1Jy+o48t2YOwzuAWsdaVXsNFzuyY7jJtIIkij+DH
x5WVzIC/7lK6Q7ard3NZ+MxgS8mBeI5x5zzo5ZgvXkCMrcUri3U3/qErIeiVNOqj
Aq9aswIDAQABo4H6MIH3MAkGA1UdEwQCMAAwLAYJYIZIAYb4QgENBB8WHU9wZW5T
U0wgR2VuZXJhdGVkIENlcnRpZmljYXRlMB0GA1UdDgQWBBQWh+PV57hxxGCbklkK
VIvMMt7ZxzCBnAYDVR0jBIGUMIGRgBRataV5lTQI+0wXYNOSiOeBdsa0PaFupGww
ajELMAkGA1UEBhMCU0UxEjAQBgNVBAgTCVN0b2NraG9sbTEOMAwGA1UEBxMFS2lz
dGExDTALBgNVBAoTBFJJU0UxFTATBgNVBAoTDFNlY3VyaXR5IExhYjERMA8GA1UE
CxMINUdFbnN1cmWCCQCy3KLqN8o65jANBgkqhkiG9w0BAQQFAAOBgQCqQmx9uCfP
r1s91n7inUuSamSQIMZ52eUcrwRpXeQKAnyCliTox/ZhxLYhAgRaNhd2f7dVAu5e
6fQ6GpiBMjFvKuuVzGFv3IbxlB/nt6RgzQ+/dnoRPQmD66xhKCkiDn9lTcFtDOwD
ZfXwocAbefrjQ1fs5+HAAjywK8kSWCsDRA==
-----END CERTIFICATE-----
