Certificate:
    Data:
        Version: 3 (0x2)
        Serial Number: 17 (0x11)
    Signature Algorithm: md5WithRSAEncryption
        Issuer: C=SE, ST=Stockholm, L=Kista, O=RISE, O=Security Lab, OU=5GEnsure
        Validity
            Not Before: Apr  4 12:53:03 2019 GMT
            Not After : Apr  3 12:53:03 2020 GMT
        Subject: CN=openvswitch
        Subject Public Key Info:
            Public Key Algorithm: rsaEncryption
                Public-Key: (2048 bit)
                Modulus:
                    00:b0:e1:d2:b0:ee:db:d4:24:0f:e4:50:df:03:5b:
                    d6:45:46:78:38:ce:13:31:cf:c3:a1:ad:ec:f5:36:
                    ff:c2:3c:cf:b2:4f:71:2a:af:3d:16:e9:c0:94:98:
                    1f:75:3e:22:d0:cd:a4:ee:ca:ca:fa:85:d1:8c:27:
                    13:a5:46:b5:a2:54:57:4b:ae:3e:33:a6:7e:d7:25:
                    0a:6b:09:0a:ab:ea:9d:c3:26:0a:81:46:01:26:5c:
                    7b:55:8c:f0:b8:c8:34:97:13:53:95:76:8b:ce:39:
                    30:10:54:b3:24:81:76:8f:4e:f4:f3:40:51:dd:2c:
                    2c:d2:b8:db:96:b7:da:78:1c:b6:29:3e:8c:d7:8b:
                    18:53:92:82:2a:28:7f:e2:86:2d:e8:ff:33:9a:33:
                    19:d1:1c:04:aa:89:6d:18:8a:b8:e8:ac:33:5e:9a:
                    da:6a:c1:92:2b:b9:96:cf:de:0a:7b:2a:01:01:bc:
                    16:7d:90:b2:e5:4e:54:7c:00:3c:6a:bb:b7:9c:05:
                    b0:7c:71:81:7f:aa:6f:7a:05:36:a9:2a:e2:75:ea:
                    b5:cb:eb:4c:1a:d2:d3:30:6e:8d:15:22:8f:54:28:
                    03:80:17:47:34:b4:aa:40:7a:7a:55:ff:4e:57:c8:
                    51:e3:2f:f6:dd:8f:bc:eb:c2:77:c3:f1:b9:ca:32:
                    db:2d
                Exponent: 65537 (0x10001)
        X509v3 extensions:
            X509v3 Basic Constraints: 
                CA:FALSE
            Netscape Comment: 
                OpenSSL Generated Certificate
            X509v3 Subject Key Identifier: 
                5F:6A:58:1E:4C:4D:A9:57:4F:38:9F:84:83:E1:66:FE:FE:86:27:81
            X509v3 Authority Key Identifier: 
                keyid:5A:B5:A5:79:95:34:08:FB:4C:17:60:D3:92:88:E7:81:76:C6:B4:3D
                DirName:/C=SE/ST=Stockholm/L=Kista/O=RISE/O=Security Lab/OU=5GEnsure
                serial:B2:DC:A2:EA:37:CA:3A:E6

    Signature Algorithm: md5WithRSAEncryption
         7a:a5:80:cc:4f:4c:de:25:8c:6b:b9:79:e9:e8:08:12:1d:70:
         27:58:56:3f:c4:73:fc:1c:46:f4:c4:65:f0:69:20:16:32:00:
         49:e0:f1:a3:db:53:72:70:48:68:c2:3e:b0:6d:fa:0b:55:98:
         33:b1:3f:2e:b7:52:88:8c:1d:bd:1a:32:65:5d:3f:82:b5:85:
         bb:df:8a:02:48:bd:b0:1c:6d:19:c9:08:f0:66:64:3a:bb:c5:
         47:cd:77:16:a1:fd:d4:ca:e0:89:b4:3f:d2:8e:ea:9a:6c:86:
         55:6b:14:bd:c2:9f:46:1a:cc:7a:db:9b:9c:b4:41:0e:86:29:
         2e:ea
-----BEGIN CERTIFICATE-----
MIIDdTCCAt6gAwIBAgIBETANBgkqhkiG9w0BAQQFADBqMQswCQYDVQQGEwJTRTES
MBAGA1UECBMJU3RvY2tob2xtMQ4wDAYDVQQHEwVLaXN0YTENMAsGA1UEChMEUklT
RTEVMBMGA1UEChMMU2VjdXJpdHkgTGFiMREwDwYDVQQLEwg1R0Vuc3VyZTAeFw0x
OTA0MDQxMjUzMDNaFw0yMDA0MDMxMjUzMDNaMBYxFDASBgNVBAMTC29wZW52c3dp
dGNoMIIBIjANBgkqhkiG9w0BAQEFAAOCAQ8AMIIBCgKCAQEAsOHSsO7b1CQP5FDf
A1vWRUZ4OM4TMc/Doa3s9Tb/wjzPsk9xKq89FunAlJgfdT4i0M2k7srK+oXRjCcT
pUa1olRXS64+M6Z+1yUKawkKq+qdwyYKgUYBJlx7VYzwuMg0lxNTlXaLzjkwEFSz
JIF2j07080BR3Sws0rjblrfaeBy2KT6M14sYU5KCKih/4oYt6P8zmjMZ0RwEqolt
GIq46KwzXpraasGSK7mWz94KeyoBAbwWfZCy5U5UfAA8aru3nAWwfHGBf6pvegU2
qSrideq1y+tMGtLTMG6NFSKPVCgDgBdHNLSqQHp6Vf9OV8hR4y/23Y+868J3w/G5
yjLbLQIDAQABo4H6MIH3MAkGA1UdEwQCMAAwLAYJYIZIAYb4QgENBB8WHU9wZW5T
U0wgR2VuZXJhdGVkIENlcnRpZmljYXRlMB0GA1UdDgQWBBRfalgeTE2pV084n4SD
4Wb+/oYngTCBnAYDVR0jBIGUMIGRgBRataV5lTQI+0wXYNOSiOeBdsa0PaFupGww
ajELMAkGA1UEBhMCU0UxEjAQBgNVBAgTCVN0b2NraG9sbTEOMAwGA1UEBxMFS2lz
dGExDTALBgNVBAoTBFJJU0UxFTATBgNVBAoTDFNlY3VyaXR5IExhYjERMA8GA1UE
CxMINUdFbnN1cmWCCQCy3KLqN8o65jANBgkqhkiG9w0BAQQFAAOBgQB6pYDMT0ze
JYxruXnp6AgSHXAnWFY/xHP8HEb0xGXwaSAWMgBJ4PGj21NycEhowj6wbfoLVZgz
sT8ut1KIjB29GjJlXT+CtYW734oCSL2wHG0ZyQjwZmQ6u8VHzXcWof3UyuCJtD/S
juqabIZVaxS9wp9GGsx625uctEEOhiku6g==
-----END CERTIFICATE-----
