Certificate:
    Data:
        Version: 3 (0x2)
        Serial Number: 18 (0x12)
    Signature Algorithm: md5WithRSAEncryption
        Issuer: C=SE, ST=Stockholm, L=Kista, O=RISE, O=Security Lab, OU=5GEnsure
        Validity
            Not Before: Apr  4 13:04:38 2019 GMT
            Not After : Apr  3 13:04:38 2020 GMT
        Subject: CN=openvswitch
        Subject Public Key Info:
            Public Key Algorithm: rsaEncryption
                Public-Key: (2048 bit)
                Modulus:
                    00:ca:e4:5d:78:83:f1:9e:d5:df:97:68:81:87:c8:
                    73:6c:e7:ba:a8:fb:2b:95:7a:de:72:91:6a:8f:e1:
                    74:f4:e7:cc:b4:53:c8:18:4a:b1:49:4a:c3:cc:1f:
                    7d:18:77:d4:52:c5:e3:6c:d5:0f:d0:01:51:7a:3e:
                    a5:b9:8a:a1:ec:54:36:bb:6f:13:15:6d:65:d7:b3:
                    d3:6f:bf:7a:78:5c:5e:e3:35:67:b6:33:24:8d:16:
                    ca:78:1a:b3:d9:20:d9:fc:72:8a:b0:a5:1d:20:5a:
                    9e:41:52:51:43:d5:a0:93:5b:ec:1e:53:ce:a5:19:
                    3d:8d:03:c7:45:2a:6c:e5:75:02:01:1b:5b:85:e1:
                    19:16:c7:9d:6f:92:ab:06:5c:1a:02:68:83:02:97:
                    5e:f3:bb:02:fb:c1:ed:99:59:4b:6f:81:45:92:af:
                    e1:10:b8:6b:5c:c8:e8:35:53:41:22:8a:99:5c:11:
                    8f:98:32:81:05:4d:ce:c9:93:14:e6:b6:57:1d:b0:
                    b1:22:05:c0:22:c9:15:05:c3:cc:84:18:fe:b5:66:
                    c9:94:70:ff:02:76:6c:a6:93:f2:e7:0e:58:6d:e0:
                    80:3f:ac:2c:38:6b:ce:50:f0:a6:51:5a:10:45:f2:
                    a9:1d:f6:8a:e3:8d:17:dd:7f:ea:ba:93:bf:25:1e:
                    01:b1
                Exponent: 65537 (0x10001)
        X509v3 extensions:
            X509v3 Basic Constraints: 
                CA:FALSE
            Netscape Comment: 
                OpenSSL Generated Certificate
            X509v3 Subject Key Identifier: 
                1E:59:62:5E:A9:4E:3A:2E:9A:5D:63:01:2D:7C:35:7B:4C:BE:36:A0
            X509v3 Authority Key Identifier: 
                keyid:5A:B5:A5:79:95:34:08:FB:4C:17:60:D3:92:88:E7:81:76:C6:B4:3D
                DirName:/C=SE/ST=Stockholm/L=Kista/O=RISE/O=Security Lab/OU=5GEnsure
                serial:B2:DC:A2:EA:37:CA:3A:E6

    Signature Algorithm: md5WithRSAEncryption
         5c:94:92:63:b6:73:52:35:1d:83:1e:3f:fb:eb:9e:47:4e:a4:
         52:51:e2:4f:31:c1:2c:d3:7b:ce:96:2b:72:bd:59:b4:44:53:
         e8:79:13:a6:1f:ed:8b:c6:a8:94:af:9f:da:63:af:70:ed:46:
         73:b3:d1:73:e2:a8:ab:ef:f1:e7:f7:6e:1b:78:98:32:f5:af:
         e0:ee:41:a0:b8:d7:37:6f:1b:af:a7:04:03:bf:de:ac:9a:e4:
         ea:53:b3:e7:33:86:c5:d8:f0:82:17:a3:04:05:1e:e6:78:cb:
         b1:99:a5:9d:cf:d4:f0:82:53:dd:b1:78:78:14:1b:24:f5:cc:
         d8:73
-----BEGIN CERTIFICATE-----
MIIDdTCCAt6gAwIBAgIBEjANBgkqhkiG9w0BAQQFADBqMQswCQYDVQQGEwJTRTES
MBAGA1UECBMJU3RvY2tob2xtMQ4wDAYDVQQHEwVLaXN0YTENMAsGA1UEChMEUklT
RTEVMBMGA1UEChMMU2VjdXJpdHkgTGFiMREwDwYDVQQLEwg1R0Vuc3VyZTAeFw0x
OTA0MDQxMzA0MzhaFw0yMDA0MDMxMzA0MzhaMBYxFDASBgNVBAMTC29wZW52c3dp
dGNoMIIBIjANBgkqhkiG9w0BAQEFAAOCAQ8AMIIBCgKCAQEAyuRdeIPxntXfl2iB
h8hzbOe6qPsrlXrecpFqj+F09OfMtFPIGEqxSUrDzB99GHfUUsXjbNUP0AFRej6l
uYqh7FQ2u28TFW1l17PTb796eFxe4zVntjMkjRbKeBqz2SDZ/HKKsKUdIFqeQVJR
Q9Wgk1vsHlPOpRk9jQPHRSps5XUCARtbheEZFsedb5KrBlwaAmiDApde87sC+8Ht
mVlLb4FFkq/hELhrXMjoNVNBIoqZXBGPmDKBBU3OyZMU5rZXHbCxIgXAIskVBcPM
hBj+tWbJlHD/AnZsppPy5w5YbeCAP6wsOGvOUPCmUVoQRfKpHfaK440X3X/qupO/
JR4BsQIDAQABo4H6MIH3MAkGA1UdEwQCMAAwLAYJYIZIAYb4QgENBB8WHU9wZW5T
U0wgR2VuZXJhdGVkIENlcnRpZmljYXRlMB0GA1UdDgQWBBQeWWJeqU46LppdYwEt
fDV7TL42oDCBnAYDVR0jBIGUMIGRgBRataV5lTQI+0wXYNOSiOeBdsa0PaFupGww
ajELMAkGA1UEBhMCU0UxEjAQBgNVBAgTCVN0b2NraG9sbTEOMAwGA1UEBxMFS2lz
dGExDTALBgNVBAoTBFJJU0UxFTATBgNVBAoTDFNlY3VyaXR5IExhYjERMA8GA1UE
CxMINUdFbnN1cmWCCQCy3KLqN8o65jANBgkqhkiG9w0BAQQFAAOBgQBclJJjtnNS
NR2DHj/7655HTqRSUeJPMcEs03vOlityvVm0RFPoeROmH+2LxqiUr5/aY69w7UZz
s9Fz4qir7/Hn924beJgy9a/g7kGguNc3bxuvpwQDv96smuTqU7PnM4bF2PCCF6ME
BR7meMuxmaWdz9TwglPdsXh4FBsk9czYcw==
-----END CERTIFICATE-----
