Certificate:
    Data:
        Version: 3 (0x2)
        Serial Number: 19 (0x13)
    Signature Algorithm: md5WithRSAEncryption
        Issuer: C=SE, ST=Stockholm, L=Kista, O=RISE, O=Security Lab, OU=5GEnsure
        Validity
            Not Before: Apr  4 13:21:35 2019 GMT
            Not After : Apr  3 13:21:35 2020 GMT
        Subject: CN=openvswitch
        Subject Public Key Info:
            Public Key Algorithm: rsaEncryption
                Public-Key: (2048 bit)
                Modulus:
                    00:ac:a4:03:10:70:b9:b5:34:46:c1:f5:bb:44:9a:
                    58:2c:69:96:b6:52:b5:6f:44:27:10:1f:fa:ac:db:
                    fc:2b:84:7a:a9:0d:84:45:a3:4d:1b:21:9b:10:d2:
                    b1:0e:d8:79:95:4d:fb:aa:fa:c9:49:40:99:6e:f7:
                    6a:1d:a7:b2:a0:5d:6d:b7:90:88:33:7d:28:31:fc:
                    02:91:e7:5b:74:50:20:74:f7:19:6e:8b:39:93:1b:
                    65:c2:96:3d:d4:ba:9c:38:36:24:9c:d4:ab:56:0b:
                    0e:fb:65:a2:58:27:17:ac:43:09:3c:f3:63:9f:df:
                    b5:8f:84:a5:2d:18:00:c2:ce:ae:52:a6:73:ee:cf:
                    75:15:b7:8e:a3:54:3d:9f:25:33:12:1c:eb:c1:3c:
                    2c:8b:f9:01:ab:6e:b3:92:e6:0b:e7:0c:b1:4d:58:
                    8f:28:69:d7:df:04:54:e6:ee:a7:64:f7:52:f6:fe:
                    5c:26:dd:21:2e:ac:55:eb:cf:e4:ef:fb:6b:09:f8:
                    77:6e:40:1b:54:89:81:6c:65:ab:04:50:e2:db:26:
                    20:3d:b0:43:f7:10:5a:d7:91:b8:1f:42:38:aa:27:
                    9d:da:fc:d4:00:1b:9d:0a:f7:d5:ff:8f:70:67:e4:
                    e6:83:e8:8f:74:77:06:42:39:cf:08:8b:8d:02:0e:
                    82:0b
                Exponent: 65537 (0x10001)
        X509v3 extensions:
            X509v3 Basic Constraints: 
                CA:FALSE
            Netscape Comment: 
                OpenSSL Generated Certificate
            X509v3 Subject Key Identifier: 
                79:FB:87:D2:F7:8B:14:34:31:30:23:90:8C:34:44:86:C1:3C:92:53
            X509v3 Authority Key Identifier: 
                keyid:5A:B5:A5:79:95:34:08:FB:4C:17:60:D3:92:88:E7:81:76:C6:B4:3D
                DirName:/C=SE/ST=Stockholm/L=Kista/O=RISE/O=Security Lab/OU=5GEnsure
                serial:B2:DC:A2:EA:37:CA:3A:E6

    Signature Algorithm: md5WithRSAEncryption
         77:94:ed:63:b7:5b:d8:5b:e8:b7:75:37:31:7a:6b:10:a2:e1:
         1f:fe:7d:25:87:68:20:67:69:bf:76:16:18:fe:95:f6:4c:d3:
         0c:65:06:a7:48:61:61:3a:cf:63:3d:81:dd:e3:ee:4c:49:e9:
         d7:38:32:53:4d:1c:e3:24:e1:bd:9f:3b:c8:70:c6:54:90:7a:
         1c:e8:ac:18:81:af:36:d7:c9:11:42:3f:33:82:80:1c:04:5e:
         fa:c5:bc:f0:4c:ba:86:a8:1b:9f:60:c5:a4:f9:db:3e:c5:73:
         09:d0:1f:1e:15:18:ee:fc:2f:69:c5:99:64:a7:82:ae:ee:32:
         3e:b3
-----BEGIN CERTIFICATE-----
MIIDdTCCAt6gAwIBAgIBEzANBgkqhkiG9w0BAQQFADBqMQswCQYDVQQGEwJTRTES
MBAGA1UECBMJU3RvY2tob2xtMQ4wDAYDVQQHEwVLaXN0YTENMAsGA1UEChMEUklT
RTEVMBMGA1UEChMMU2VjdXJpdHkgTGFiMREwDwYDVQQLEwg1R0Vuc3VyZTAeFw0x
OTA0MDQxMzIxMzVaFw0yMDA0MDMxMzIxMzVaMBYxFDASBgNVBAMTC29wZW52c3dp
dGNoMIIBIjANBgkqhkiG9w0BAQEFAAOCAQ8AMIIBCgKCAQEArKQDEHC5tTRGwfW7
RJpYLGmWtlK1b0QnEB/6rNv8K4R6qQ2ERaNNGyGbENKxDth5lU37qvrJSUCZbvdq
HaeyoF1tt5CIM30oMfwCkedbdFAgdPcZbos5kxtlwpY91LqcODYknNSrVgsO+2Wi
WCcXrEMJPPNjn9+1j4SlLRgAws6uUqZz7s91FbeOo1Q9nyUzEhzrwTwsi/kBq26z
kuYL5wyxTViPKGnX3wRU5u6nZPdS9v5cJt0hLqxV68/k7/trCfh3bkAbVImBbGWr
BFDi2yYgPbBD9xBa15G4H0I4qied2vzUABudCvfV/49wZ+Tmg+iPdHcGQjnPCIuN
Ag6CCwIDAQABo4H6MIH3MAkGA1UdEwQCMAAwLAYJYIZIAYb4QgENBB8WHU9wZW5T
U0wgR2VuZXJhdGVkIENlcnRpZmljYXRlMB0GA1UdDgQWBBR5+4fS94sUNDEwI5CM
NESGwTySUzCBnAYDVR0jBIGUMIGRgBRataV5lTQI+0wXYNOSiOeBdsa0PaFupGww
ajELMAkGA1UEBhMCU0UxEjAQBgNVBAgTCVN0b2NraG9sbTEOMAwGA1UEBxMFS2lz
dGExDTALBgNVBAoTBFJJU0UxFTATBgNVBAoTDFNlY3VyaXR5IExhYjERMA8GA1UE
CxMINUdFbnN1cmWCCQCy3KLqN8o65jANBgkqhkiG9w0BAQQFAAOBgQB3lO1jt1vY
W+i3dTcxemsQouEf/n0lh2ggZ2m/dhYY/pX2TNMMZQanSGFhOs9jPYHd4+5MSenX
ODJTTRzjJOG9nzvIcMZUkHoc6KwYga8218kRQj8zgoAcBF76xbzwTLqGqBufYMWk
+ds+xXMJ0B8eFRju/C9pxZlkp4Ku7jI+sw==
-----END CERTIFICATE-----
