Certificate:
    Data:
        Version: 3 (0x2)
        Serial Number: 20 (0x14)
    Signature Algorithm: md5WithRSAEncryption
        Issuer: C=SE, ST=Stockholm, L=Kista, O=RISE, O=Security Lab, OU=5GEnsure
        Validity
            Not Before: Apr  4 13:22:02 2019 GMT
            Not After : Apr  3 13:22:02 2020 GMT
        Subject: CN=openvswitch
        Subject Public Key Info:
            Public Key Algorithm: rsaEncryption
                Public-Key: (2048 bit)
                Modulus:
                    00:95:1b:82:2d:c6:e6:94:78:c5:ca:f0:da:e4:79:
                    a9:3a:03:12:fa:1c:6e:41:b1:59:d9:17:14:a3:e4:
                    dc:da:7b:33:8d:9f:b9:0f:92:a8:e5:2e:47:ad:ff:
                    c0:d1:5e:27:e5:3c:fb:0e:3a:b8:d1:49:fe:f3:06:
                    60:55:28:f9:d6:da:47:a7:3c:9c:2d:ce:c3:a0:ad:
                    cb:d3:ec:d9:54:0a:e7:60:38:91:43:85:11:6e:d8:
                    cd:ac:90:18:34:af:19:97:3a:17:08:fe:9e:80:0b:
                    57:ce:8f:0e:4d:ad:a3:dc:03:38:0b:ab:70:0c:1d:
                    da:8c:07:9e:7c:29:86:ad:88:8c:6e:98:ba:a7:32:
                    66:62:99:96:51:08:ee:03:90:44:d5:e1:18:74:13:
                    b5:ea:1f:a0:09:0e:a4:70:ef:a1:48:98:75:92:a5:
                    c6:f3:66:8d:74:d6:40:76:d1:b9:79:6a:6f:17:45:
                    4d:c1:ac:34:2a:1e:77:f8:42:94:cb:cd:f5:7f:5c:
                    9e:d6:d3:1f:c3:32:10:d3:e1:58:53:da:51:4b:10:
                    de:06:4a:56:3b:8d:fc:87:24:72:17:3f:a6:24:37:
                    24:65:6f:49:f7:eb:5e:09:f6:7e:93:b4:a1:34:5b:
                    b7:77:d3:87:7b:76:0d:6c:16:da:09:e6:e9:14:5d:
                    13:cf
                Exponent: 65537 (0x10001)
        X509v3 extensions:
            X509v3 Basic Constraints: 
                CA:FALSE
            Netscape Comment: 
                OpenSSL Generated Certificate
            X509v3 Subject Key Identifier: 
                62:BA:A8:D9:65:37:CB:5F:64:1A:40:E1:E7:B0:65:D9:BE:BD:BE:AF
            X509v3 Authority Key Identifier: 
                keyid:5A:B5:A5:79:95:34:08:FB:4C:17:60:D3:92:88:E7:81:76:C6:B4:3D
                DirName:/C=SE/ST=Stockholm/L=Kista/O=RISE/O=Security Lab/OU=5GEnsure
                serial:B2:DC:A2:EA:37:CA:3A:E6

    Signature Algorithm: md5WithRSAEncryption
         ba:4a:2d:e9:46:82:49:b8:73:07:bd:e0:76:8e:ba:f9:24:2a:
         a3:22:23:0c:8f:7a:60:01:11:1f:6b:68:4c:5d:2c:d3:b8:53:
         68:05:9f:66:b4:e7:12:e8:39:a4:54:41:06:34:ab:5f:20:d1:
         05:5d:c1:22:70:67:d4:05:8a:2f:02:e3:a2:40:a6:90:c2:58:
         76:89:ca:eb:12:01:b2:d1:35:37:bd:44:c6:57:67:df:51:b2:
         64:47:ec:b1:bd:21:7e:87:06:86:d1:c0:bd:90:6c:bb:48:83:
         67:8e:f5:40:77:e8:ab:47:c7:06:31:96:e2:ba:b1:a3:15:68:
         12:ac
-----BEGIN CERTIFICATE-----
MIIDdTCCAt6gAwIBAgIBFDANBgkqhkiG9w0BAQQFADBqMQswCQYDVQQGEwJTRTES
MBAGA1UECBMJU3RvY2tob2xtMQ4wDAYDVQQHEwVLaXN0YTENMAsGA1UEChMEUklT
RTEVMBMGA1UEChMMU2VjdXJpdHkgTGFiMREwDwYDVQQLEwg1R0Vuc3VyZTAeFw0x
OTA0MDQxMzIyMDJaFw0yMDA0MDMxMzIyMDJaMBYxFDASBgNVBAMTC29wZW52c3dp
dGNoMIIBIjANBgkqhkiG9w0BAQEFAAOCAQ8AMIIBCgKCAQEAlRuCLcbmlHjFyvDa
5HmpOgMS+hxuQbFZ2RcUo+Tc2nszjZ+5D5Ko5S5Hrf/A0V4n5Tz7Djq40Un+8wZg
VSj51tpHpzycLc7DoK3L0+zZVArnYDiRQ4URbtjNrJAYNK8ZlzoXCP6egAtXzo8O
Ta2j3AM4C6twDB3ajAeefCmGrYiMbpi6pzJmYpmWUQjuA5BE1eEYdBO16h+gCQ6k
cO+hSJh1kqXG82aNdNZAdtG5eWpvF0VNwaw0Kh53+EKUy831f1ye1tMfwzIQ0+FY
U9pRSxDeBkpWO438hyRyFz+mJDckZW9J9+teCfZ+k7ShNFu3d9OHe3YNbBbaCebp
FF0TzwIDAQABo4H6MIH3MAkGA1UdEwQCMAAwLAYJYIZIAYb4QgENBB8WHU9wZW5T
U0wgR2VuZXJhdGVkIENlcnRpZmljYXRlMB0GA1UdDgQWBBRiuqjZZTfLX2QaQOHn
sGXZvr2+rzCBnAYDVR0jBIGUMIGRgBRataV5lTQI+0wXYNOSiOeBdsa0PaFupGww
ajELMAkGA1UEBhMCU0UxEjAQBgNVBAgTCVN0b2NraG9sbTEOMAwGA1UEBxMFS2lz
dGExDTALBgNVBAoTBFJJU0UxFTATBgNVBAoTDFNlY3VyaXR5IExhYjERMA8GA1UE
CxMINUdFbnN1cmWCCQCy3KLqN8o65jANBgkqhkiG9w0BAQQFAAOBgQC6Si3pRoJJ
uHMHveB2jrr5JCqjIiMMj3pgAREfa2hMXSzTuFNoBZ9mtOcS6DmkVEEGNKtfINEF
XcEicGfUBYovAuOiQKaQwlh2icrrEgGy0TU3vUTGV2ffUbJkR+yxvSF+hwaG0cC9
kGy7SINnjvVAd+irR8cGMZbiurGjFWgSrA==
-----END CERTIFICATE-----
