Certificate:
    Data:
        Version: 3 (0x2)
        Serial Number: 21 (0x15)
    Signature Algorithm: md5WithRSAEncryption
        Issuer: C=SE, ST=Stockholm, L=Kista, O=RISE, O=Security Lab, OU=5GEnsure
        Validity
            Not Before: Apr  4 13:27:20 2019 GMT
            Not After : Apr  3 13:27:20 2020 GMT
        Subject: CN=openvswitch
        Subject Public Key Info:
            Public Key Algorithm: rsaEncryption
                Public-Key: (2048 bit)
                Modulus:
                    00:bc:35:82:6a:2f:ad:ef:36:8e:ee:af:96:b7:4a:
                    77:ae:2d:00:90:40:5d:12:60:ad:a2:39:06:25:7c:
                    f6:4e:9c:b2:a4:5b:2e:a9:d8:e4:44:e0:c1:36:09:
                    59:9e:71:44:d4:5c:74:17:51:eb:b3:74:e9:bc:83:
                    21:f7:d9:86:1c:ff:3f:e5:1a:13:d1:80:6f:98:4b:
                    4d:cd:97:5b:71:bc:d0:5e:66:47:9b:a5:7b:8c:58:
                    b7:43:46:93:de:99:ea:6e:d3:99:4d:07:7c:84:18:
                    f9:f8:2b:cb:b3:68:24:0a:a1:51:19:04:5e:e1:db:
                    d9:67:71:10:d4:5b:d4:84:67:77:c5:1b:2c:61:ef:
                    c3:74:4e:58:d6:f1:b5:01:31:e1:d7:93:54:e9:1b:
                    86:dd:9a:5e:44:63:06:f9:49:0b:e3:36:d2:29:3c:
                    e5:a3:e2:a4:c3:ff:5b:a4:63:c9:e4:bf:91:07:03:
                    e9:15:9b:78:ee:a6:ee:88:6e:fb:4b:82:d5:56:2f:
                    74:85:ab:dd:bc:6c:1d:b0:c9:c7:4d:a1:5c:22:91:
                    38:f8:1f:4b:2e:7c:39:c5:ef:dc:27:62:7c:cb:6f:
                    8a:9b:71:1b:03:ac:ca:08:e6:98:3c:e5:8d:5e:d0:
                    9b:87:c4:39:f7:50:aa:2e:cb:46:57:a5:dd:40:c4:
                    2f:93
                Exponent: 65537 (0x10001)
        X509v3 extensions:
            X509v3 Basic Constraints: 
                CA:FALSE
            Netscape Comment: 
                OpenSSL Generated Certificate
            X509v3 Subject Key Identifier: 
                6E:C3:42:EA:1A:E1:D2:10:5D:C4:B1:70:68:83:26:98:BD:FE:D1:F6
            X509v3 Authority Key Identifier: 
                keyid:5A:B5:A5:79:95:34:08:FB:4C:17:60:D3:92:88:E7:81:76:C6:B4:3D
                DirName:/C=SE/ST=Stockholm/L=Kista/O=RISE/O=Security Lab/OU=5GEnsure
                serial:B2:DC:A2:EA:37:CA:3A:E6

    Signature Algorithm: md5WithRSAEncryption
         39:91:11:83:d2:db:f8:57:e3:69:a3:61:ca:e0:85:0a:e7:14:
         83:10:56:8e:20:da:52:a6:ec:50:35:ef:10:65:9a:21:a5:34:
         d3:55:d2:fb:a4:84:1a:d7:46:bc:33:37:2b:0f:e8:17:ce:1e:
         ea:36:b0:e6:8b:22:41:bd:eb:a1:bc:17:b2:b5:5b:c0:35:63:
         5e:0a:07:aa:7d:d8:61:c8:23:3f:5b:4c:40:93:c8:77:c8:ed:
         81:40:49:2d:7c:26:52:c5:c5:1b:c3:cb:7e:ed:fb:17:ac:f4:
         3e:fd:f2:85:12:c5:40:8d:30:80:34:2c:5c:49:e0:0a:72:94:
         02:64
-----BEGIN CERTIFICATE-----
MIIDdTCCAt6gAwIBAgIBFTANBgkqhkiG9w0BAQQFADBqMQswCQYDVQQGEwJTRTES
MBAGA1UECBMJU3RvY2tob2xtMQ4wDAYDVQQHEwVLaXN0YTENMAsGA1UEChMEUklT
RTEVMBMGA1UEChMMU2VjdXJpdHkgTGFiMREwDwYDVQQLEwg1R0Vuc3VyZTAeFw0x
OTA0MDQxMzI3MjBaFw0yMDA0MDMxMzI3MjBaMBYxFDASBgNVBAMTC29wZW52c3dp
dGNoMIIBIjANBgkqhkiG9w0BAQEFAAOCAQ8AMIIBCgKCAQEAvDWCai+t7zaO7q+W
t0p3ri0AkEBdEmCtojkGJXz2TpyypFsuqdjkRODBNglZnnFE1Fx0F1Hrs3TpvIMh
99mGHP8/5RoT0YBvmEtNzZdbcbzQXmZHm6V7jFi3Q0aT3pnqbtOZTQd8hBj5+CvL
s2gkCqFRGQRe4dvZZ3EQ1FvUhGd3xRssYe/DdE5Y1vG1ATHh15NU6RuG3ZpeRGMG
+UkL4zbSKTzlo+Kkw/9bpGPJ5L+RBwPpFZt47qbuiG77S4LVVi90havdvGwdsMnH
TaFcIpE4+B9LLnw5xe/cJ2J8y2+Km3EbA6zKCOaYPOWNXtCbh8Q591CqLstGV6Xd
QMQvkwIDAQABo4H6MIH3MAkGA1UdEwQCMAAwLAYJYIZIAYb4QgENBB8WHU9wZW5T
U0wgR2VuZXJhdGVkIENlcnRpZmljYXRlMB0GA1UdDgQWBBRuw0LqGuHSEF3EsXBo
gyaYvf7R9jCBnAYDVR0jBIGUMIGRgBRataV5lTQI+0wXYNOSiOeBdsa0PaFupGww
ajELMAkGA1UEBhMCU0UxEjAQBgNVBAgTCVN0b2NraG9sbTEOMAwGA1UEBxMFS2lz
dGExDTALBgNVBAoTBFJJU0UxFTATBgNVBAoTDFNlY3VyaXR5IExhYjERMA8GA1UE
CxMINUdFbnN1cmWCCQCy3KLqN8o65jANBgkqhkiG9w0BAQQFAAOBgQA5kRGD0tv4
V+Npo2HK4IUK5xSDEFaOINpSpuxQNe8QZZohpTTTVdL7pIQa10a8MzcrD+gXzh7q
NrDmiyJBveuhvBeytVvANWNeCgeqfdhhyCM/W0xAk8h3yO2BQEktfCZSxcUbw8t+
7fsXrPQ+/fKFEsVAjTCANCxcSeAKcpQCZA==
-----END CERTIFICATE-----
