Certificate:
    Data:
        Version: 3 (0x2)
        Serial Number: 22 (0x16)
    Signature Algorithm: md5WithRSAEncryption
        Issuer: C=SE, ST=Stockholm, L=Kista, O=RISE, O=Security Lab, OU=5GEnsure
        Validity
            Not Before: Apr  4 13:29:34 2019 GMT
            Not After : Apr  3 13:29:34 2020 GMT
        Subject: CN=openvswitch
        Subject Public Key Info:
            Public Key Algorithm: rsaEncryption
                Public-Key: (2048 bit)
                Modulus:
                    00:bc:4e:fe:d5:33:00:69:96:a8:d3:10:fa:e8:63:
                    ef:2c:52:bb:21:e3:fb:27:f8:6e:46:04:73:e4:a5:
                    78:fb:cb:6c:4a:d7:8f:ac:7d:da:a1:ed:2a:0a:b6:
                    8a:cf:1c:82:89:a0:41:90:27:8e:e9:70:8f:21:25:
                    6c:44:b9:04:0c:dd:cf:18:12:5c:be:bf:62:22:bc:
                    6b:8e:7d:61:9d:3e:87:1c:aa:c4:5d:39:1d:a7:b7:
                    7a:36:aa:89:0e:0c:d4:aa:76:33:09:3b:9a:73:8c:
                    b0:a9:ca:00:64:92:f6:04:85:2b:db:0a:ca:7b:cc:
                    6d:c9:b6:26:cc:17:ee:cd:14:ef:ac:39:56:55:28:
                    74:c2:2f:dc:00:d8:db:0d:13:91:a2:41:38:e6:63:
                    3b:3c:a8:18:05:7c:b0:c1:7e:67:df:4f:1d:2b:21:
                    14:a7:0d:bc:92:1e:fd:98:d0:87:a5:31:08:bf:e5:
                    a5:f3:6d:c1:22:9b:1e:2a:2f:ad:91:0d:25:9f:7e:
                    f3:e6:0d:81:78:31:35:36:01:1c:c6:3f:71:5a:41:
                    ce:f0:e1:14:d1:12:b7:06:2f:45:b8:80:ba:2b:cf:
                    19:46:fa:17:81:76:61:f9:f6:0b:5d:8c:0e:bb:43:
                    5f:21:b7:72:35:c3:6d:52:dd:8e:19:8f:20:f6:57:
                    90:ff
                Exponent: 65537 (0x10001)
        X509v3 extensions:
            X509v3 Basic Constraints: 
                CA:FALSE
            Netscape Comment: 
                OpenSSL Generated Certificate
            X509v3 Subject Key Identifier: 
                05:AE:2C:43:9A:CE:49:17:88:69:D0:47:E8:30:DE:57:DE:86:26:51
            X509v3 Authority Key Identifier: 
                keyid:5A:B5:A5:79:95:34:08:FB:4C:17:60:D3:92:88:E7:81:76:C6:B4:3D
                DirName:/C=SE/ST=Stockholm/L=Kista/O=RISE/O=Security Lab/OU=5GEnsure
                serial:B2:DC:A2:EA:37:CA:3A:E6

    Signature Algorithm: md5WithRSAEncryption
         a9:b9:ef:40:a8:50:62:8f:3a:c0:b3:c9:32:cf:85:b6:36:06:
         aa:e6:1d:6b:c7:8e:68:fe:e3:e5:9d:61:5e:d8:fc:44:7e:61:
         7e:59:4e:b0:75:00:06:2d:39:fc:cd:94:c5:b4:86:7b:53:91:
         62:21:be:77:ed:00:f6:5a:eb:70:c8:2c:b3:e7:3c:df:f6:72:
         7d:f2:e5:29:03:48:f3:42:88:0f:e7:83:ef:3b:33:72:93:e3:
         7b:9c:88:44:98:f0:2d:ee:09:17:44:e7:5f:d2:79:c8:a4:c8:
         31:b9:6f:9e:43:63:f1:cb:10:59:71:4f:3f:ff:ed:bb:ab:68:
         02:a7
-----BEGIN CERTIFICATE-----
MIIDdTCCAt6gAwIBAgIBFjANBgkqhkiG9w0BAQQFADBqMQswCQYDVQQGEwJTRTES
MBAGA1UECBMJU3RvY2tob2xtMQ4wDAYDVQQHEwVLaXN0YTENMAsGA1UEChMEUklT
RTEVMBMGA1UEChMMU2VjdXJpdHkgTGFiMREwDwYDVQQLEwg1R0Vuc3VyZTAeFw0x
OTA0MDQxMzI5MzRaFw0yMDA0MDMxMzI5MzRaMBYxFDASBgNVBAMTC29wZW52c3dp
dGNoMIIBIjANBgkqhkiG9w0BAQEFAAOCAQ8AMIIBCgKCAQEAvE7+1TMAaZao0xD6
6GPvLFK7IeP7J/huRgRz5KV4+8tsStePrH3aoe0qCraKzxyCiaBBkCeO6XCPISVs
RLkEDN3PGBJcvr9iIrxrjn1hnT6HHKrEXTkdp7d6NqqJDgzUqnYzCTuac4ywqcoA
ZJL2BIUr2wrKe8xtybYmzBfuzRTvrDlWVSh0wi/cANjbDRORokE45mM7PKgYBXyw
wX5n308dKyEUpw28kh79mNCHpTEIv+Wl823BIpseKi+tkQ0ln37z5g2BeDE1NgEc
xj9xWkHO8OEU0RK3Bi9FuIC6K88ZRvoXgXZh+fYLXYwOu0NfIbdyNcNtUt2OGY8g
9leQ/wIDAQABo4H6MIH3MAkGA1UdEwQCMAAwLAYJYIZIAYb4QgENBB8WHU9wZW5T
U0wgR2VuZXJhdGVkIENlcnRpZmljYXRlMB0GA1UdDgQWBBQFrixDms5JF4hp0Efo
MN5X3oYmUTCBnAYDVR0jBIGUMIGRgBRataV5lTQI+0wXYNOSiOeBdsa0PaFupGww
ajELMAkGA1UEBhMCU0UxEjAQBgNVBAgTCVN0b2NraG9sbTEOMAwGA1UEBxMFS2lz
dGExDTALBgNVBAoTBFJJU0UxFTATBgNVBAoTDFNlY3VyaXR5IExhYjERMA8GA1UE
CxMINUdFbnN1cmWCCQCy3KLqN8o65jANBgkqhkiG9w0BAQQFAAOBgQCpue9AqFBi
jzrAs8kyz4W2Ngaq5h1rx45o/uPlnWFe2PxEfmF+WU6wdQAGLTn8zZTFtIZ7U5Fi
Ib537QD2WutwyCyz5zzf9nJ98uUpA0jzQogP54PvOzNyk+N7nIhEmPAt7gkXROdf
0nnIpMgxuW+eQ2PxyxBZcU8//+27q2gCpw==
-----END CERTIFICATE-----
