Certificate:
    Data:
        Version: 3 (0x2)
        Serial Number: 23 (0x17)
    Signature Algorithm: md5WithRSAEncryption
        Issuer: C=SE, ST=Stockholm, L=Kista, O=RISE, O=Security Lab, OU=5GEnsure
        Validity
            Not Before: Apr  4 13:30:30 2019 GMT
            Not After : Apr  3 13:30:30 2020 GMT
        Subject: CN=openvswitch
        Subject Public Key Info:
            Public Key Algorithm: rsaEncryption
                Public-Key: (2048 bit)
                Modulus:
                    00:a0:f6:02:b8:86:cd:02:07:f8:16:65:76:6f:2f:
                    49:34:11:c9:92:f1:1b:9f:46:ba:58:bc:5f:c5:16:
                    15:1e:53:6a:a6:db:24:6e:10:27:b4:95:93:78:24:
                    28:04:81:41:2a:f4:80:cd:6a:b7:3f:5d:e7:8e:eb:
                    83:13:ec:6e:8a:2d:60:fc:08:40:2a:4a:f0:fb:f9:
                    ac:52:16:ae:54:a6:7d:b2:8c:a6:af:d2:5a:5a:ba:
                    4e:67:67:01:a1:70:be:6c:4a:55:87:82:a1:5e:c2:
                    f9:a5:82:24:ab:3b:16:99:85:92:fe:fc:1b:f6:6a:
                    46:9f:a1:03:e7:6e:25:ac:62:59:64:54:05:99:82:
                    27:e8:d7:94:b3:65:92:0e:88:bd:ff:4d:68:69:13:
                    7d:03:44:99:14:a2:87:53:97:4c:41:c7:39:70:fc:
                    36:e7:03:ac:e1:c9:3e:1d:d6:eb:92:a1:5e:5a:a7:
                    12:4e:1a:ae:b0:04:a5:fa:91:61:bd:67:c2:50:18:
                    18:36:33:03:15:d5:96:1a:d3:02:7b:b5:58:ff:56:
                    b4:0e:97:d4:ac:25:32:9b:cb:09:ec:0c:8c:da:80:
                    69:7e:c2:dc:8e:11:87:f1:95:27:82:9b:b6:a6:f1:
                    9e:1d:52:58:cd:7c:92:b1:72:39:79:78:87:c6:e6:
                    58:e9
                Exponent: 65537 (0x10001)
        X509v3 extensions:
            X509v3 Basic Constraints: 
                CA:FALSE
            Netscape Comment: 
                OpenSSL Generated Certificate
            X509v3 Subject Key Identifier: 
                5F:6A:AC:25:65:39:2D:34:63:88:B1:95:31:3B:D5:BC:1A:66:20:98
            X509v3 Authority Key Identifier: 
                keyid:5A:B5:A5:79:95:34:08:FB:4C:17:60:D3:92:88:E7:81:76:C6:B4:3D
                DirName:/C=SE/ST=Stockholm/L=Kista/O=RISE/O=Security Lab/OU=5GEnsure
                serial:B2:DC:A2:EA:37:CA:3A:E6

    Signature Algorithm: md5WithRSAEncryption
         c1:11:d1:b4:02:4e:f2:e4:04:53:fe:c7:e6:09:79:60:1f:a3:
         8a:1a:f4:5c:ac:5a:c6:c2:1b:3d:69:5d:79:b5:11:33:8c:82:
         35:16:91:35:ba:be:b3:76:f8:f8:42:62:13:ac:39:1e:29:38:
         f2:f5:fb:34:66:89:e9:08:4d:9d:5f:6f:c8:ec:7d:f1:bb:6c:
         14:90:59:56:0e:28:f0:db:1a:70:9b:2e:ef:54:81:26:dd:48:
         c9:ac:e6:c1:a3:a2:ff:2b:d0:df:e8:43:35:a8:a7:27:af:74:
         de:e7:f7:1e:f2:05:37:b1:e8:f6:39:9e:aa:29:11:56:fe:9c:
         75:7e
-----BEGIN CERTIFICATE-----
MIIDdTCCAt6gAwIBAgIBFzANBgkqhkiG9w0BAQQFADBqMQswCQYDVQQGEwJTRTES
MBAGA1UECBMJU3RvY2tob2xtMQ4wDAYDVQQHEwVLaXN0YTENMAsGA1UEChMEUklT
RTEVMBMGA1UEChMMU2VjdXJpdHkgTGFiMREwDwYDVQQLEwg1R0Vuc3VyZTAeFw0x
OTA0MDQxMzMwMzBaFw0yMDA0MDMxMzMwMzBaMBYxFDASBgNVBAMTC29wZW52c3dp
dGNoMIIBIjANBgkqhkiG9w0BAQEFAAOCAQ8AMIIBCgKCAQEAoPYCuIbNAgf4FmV2
by9JNBHJkvEbn0a6WLxfxRYVHlNqptskbhAntJWTeCQoBIFBKvSAzWq3P13njuuD
E+xuii1g/AhAKkrw+/msUhauVKZ9soymr9JaWrpOZ2cBoXC+bEpVh4KhXsL5pYIk
qzsWmYWS/vwb9mpGn6ED524lrGJZZFQFmYIn6NeUs2WSDoi9/01oaRN9A0SZFKKH
U5dMQcc5cPw25wOs4ck+HdbrkqFeWqcSThqusASl+pFhvWfCUBgYNjMDFdWWGtMC
e7VY/1a0DpfUrCUym8sJ7AyM2oBpfsLcjhGH8ZUngpu2pvGeHVJYzXySsXI5eXiH
xuZY6QIDAQABo4H6MIH3MAkGA1UdEwQCMAAwLAYJYIZIAYb4QgENBB8WHU9wZW5T
U0wgR2VuZXJhdGVkIENlcnRpZmljYXRlMB0GA1UdDgQWBBRfaqwlZTktNGOIsZUx
O9W8GmYgmDCBnAYDVR0jBIGUMIGRgBRataV5lTQI+0wXYNOSiOeBdsa0PaFupGww
ajELMAkGA1UEBhMCU0UxEjAQBgNVBAgTCVN0b2NraG9sbTEOMAwGA1UEBxMFS2lz
dGExDTALBgNVBAoTBFJJU0UxFTATBgNVBAoTDFNlY3VyaXR5IExhYjERMA8GA1UE
CxMINUdFbnN1cmWCCQCy3KLqN8o65jANBgkqhkiG9w0BAQQFAAOBgQDBEdG0Ak7y
5ART/sfmCXlgH6OKGvRcrFrGwhs9aV15tREzjII1FpE1ur6zdvj4QmITrDkeKTjy
9fs0ZonpCE2dX2/I7H3xu2wUkFlWDijw2xpwmy7vVIEm3UjJrObBo6L/K9Df6EM1
qKcnr3Te5/ce8gU3sej2OZ6qKRFW/px1fg==
-----END CERTIFICATE-----
