Certificate:
    Data:
        Version: 3 (0x2)
        Serial Number: 24 (0x18)
    Signature Algorithm: md5WithRSAEncryption
        Issuer: C=SE, ST=Stockholm, L=Kista, O=RISE, O=Security Lab, OU=5GEnsure
        Validity
            Not Before: Apr  4 13:48:37 2019 GMT
            Not After : Apr  3 13:48:37 2020 GMT
        Subject: CN=openvswitch
        Subject Public Key Info:
            Public Key Algorithm: rsaEncryption
                Public-Key: (2048 bit)
                Modulus:
                    00:90:13:5f:c4:fc:83:68:b6:bd:f5:0c:99:80:7b:
                    bc:88:71:80:68:6a:ed:8f:f4:f3:67:a7:50:89:fe:
                    00:73:a9:ff:67:13:bf:b8:fd:d8:53:e3:37:4a:2f:
                    b6:bd:0f:b2:4f:24:9e:69:2c:5e:9d:12:c1:70:4d:
                    b1:ce:a4:af:87:72:51:47:82:d0:da:e8:4e:ad:a4:
                    25:3f:cc:0b:71:53:db:a7:e5:7b:97:28:48:ea:f9:
                    4a:59:b8:c6:9e:b9:7d:37:13:18:45:aa:73:73:54:
                    a2:46:95:0a:6e:00:c8:3f:36:8e:f1:93:56:2c:f6:
                    90:60:72:2f:41:25:86:73:a9:65:75:24:c0:19:08:
                    ea:42:25:fa:95:a7:14:fc:90:0d:f1:7e:b8:7d:1e:
                    ae:06:b0:6c:8c:ce:8b:28:12:eb:26:6b:fd:97:8f:
                    c1:35:b0:7f:15:6a:ae:cd:37:e5:4b:62:54:54:97:
                    d5:1a:07:f0:3b:5f:07:ef:e1:fc:a7:3a:30:75:c3:
                    22:a7:b2:40:60:e8:fa:05:15:8c:6f:04:52:68:8a:
                    31:a0:fb:76:2b:cd:8a:f9:a0:4b:ea:25:90:7b:aa:
                    a2:92:75:9e:18:ad:14:43:da:54:65:28:5e:6d:8e:
                    86:e6:0a:95:be:be:40:2c:19:f4:14:76:5c:c2:07:
                    3e:5f
                Exponent: 65537 (0x10001)
        X509v3 extensions:
            X509v3 Basic Constraints: 
                CA:FALSE
            Netscape Comment: 
                OpenSSL Generated Certificate
            X509v3 Subject Key Identifier: 
                78:84:69:2F:49:52:C1:39:5B:8F:94:79:38:04:AB:65:75:A3:4E:E4
            X509v3 Authority Key Identifier: 
                keyid:5A:B5:A5:79:95:34:08:FB:4C:17:60:D3:92:88:E7:81:76:C6:B4:3D
                DirName:/C=SE/ST=Stockholm/L=Kista/O=RISE/O=Security Lab/OU=5GEnsure
                serial:B2:DC:A2:EA:37:CA:3A:E6

    Signature Algorithm: md5WithRSAEncryption
         be:b2:20:56:a4:c4:d5:ed:23:06:12:20:4a:4f:ad:63:b7:0c:
         fc:18:8c:9a:44:28:eb:ca:e4:d3:15:6c:58:42:ed:ca:30:92:
         36:4f:75:86:cf:7c:f9:9e:7a:a3:bb:f7:b7:a8:5e:e9:31:7f:
         64:3e:f9:fd:f2:57:4e:42:89:62:48:69:14:80:a4:9b:cb:28:
         52:48:91:77:31:14:a7:6b:ea:80:05:12:62:b2:f5:e9:75:48:
         73:0a:be:dd:a8:8e:bf:39:cc:21:34:63:e6:f2:b4:04:86:98:
         0e:bf:8e:35:67:8e:02:ad:b8:44:c4:90:dd:a5:29:78:54:a8:
         03:fa
-----BEGIN CERTIFICATE-----
MIIDdTCCAt6gAwIBAgIBGDANBgkqhkiG9w0BAQQFADBqMQswCQYDVQQGEwJTRTES
MBAGA1UECBMJU3RvY2tob2xtMQ4wDAYDVQQHEwVLaXN0YTENMAsGA1UEChMEUklT
RTEVMBMGA1UEChMMU2VjdXJpdHkgTGFiMREwDwYDVQQLEwg1R0Vuc3VyZTAeFw0x
OTA0MDQxMzQ4MzdaFw0yMDA0MDMxMzQ4MzdaMBYxFDASBgNVBAMTC29wZW52c3dp
dGNoMIIBIjANBgkqhkiG9w0BAQEFAAOCAQ8AMIIBCgKCAQEAkBNfxPyDaLa99QyZ
gHu8iHGAaGrtj/TzZ6dQif4Ac6n/ZxO/uP3YU+M3Si+2vQ+yTySeaSxenRLBcE2x
zqSvh3JRR4LQ2uhOraQlP8wLcVPbp+V7lyhI6vlKWbjGnrl9NxMYRapzc1SiRpUK
bgDIPzaO8ZNWLPaQYHIvQSWGc6lldSTAGQjqQiX6lacU/JAN8X64fR6uBrBsjM6L
KBLrJmv9l4/BNbB/FWquzTflS2JUVJfVGgfwO18H7+H8pzowdcMip7JAYOj6BRWM
bwRSaIoxoPt2K82K+aBL6iWQe6qiknWeGK0UQ9pUZShebY6G5gqVvr5ALBn0FHZc
wgc+XwIDAQABo4H6MIH3MAkGA1UdEwQCMAAwLAYJYIZIAYb4QgENBB8WHU9wZW5T
U0wgR2VuZXJhdGVkIENlcnRpZmljYXRlMB0GA1UdDgQWBBR4hGkvSVLBOVuPlHk4
BKtldaNO5DCBnAYDVR0jBIGUMIGRgBRataV5lTQI+0wXYNOSiOeBdsa0PaFupGww
ajELMAkGA1UEBhMCU0UxEjAQBgNVBAgTCVN0b2NraG9sbTEOMAwGA1UEBxMFS2lz
dGExDTALBgNVBAoTBFJJU0UxFTATBgNVBAoTDFNlY3VyaXR5IExhYjERMA8GA1UE
CxMINUdFbnN1cmWCCQCy3KLqN8o65jANBgkqhkiG9w0BAQQFAAOBgQC+siBWpMTV
7SMGEiBKT61jtwz8GIyaRCjryuTTFWxYQu3KMJI2T3WGz3z5nnqju/e3qF7pMX9k
Pvn98ldOQoliSGkUgKSbyyhSSJF3MRSna+qABRJisvXpdUhzCr7dqI6/OcwhNGPm
8rQEhpgOv441Z44CrbhExJDdpSl4VKgD+g==
-----END CERTIFICATE-----
