Certificate:
    Data:
        Version: 3 (0x2)
        Serial Number: 25 (0x19)
    Signature Algorithm: md5WithRSAEncryption
        Issuer: C=SE, ST=Stockholm, L=Kista, O=RISE, O=Security Lab, OU=5GEnsure
        Validity
            Not Before: Apr  4 13:50:02 2019 GMT
            Not After : Apr  3 13:50:02 2020 GMT
        Subject: CN=openvswitch
        Subject Public Key Info:
            Public Key Algorithm: rsaEncryption
                Public-Key: (2048 bit)
                Modulus:
                    00:a0:d0:ae:47:2a:df:eb:ac:b7:e9:6e:49:24:f7:
                    d8:94:f2:c7:31:3a:e4:73:48:1b:d0:13:59:a0:0f:
                    6d:b5:12:9c:7d:49:11:9f:35:18:ea:be:7b:d4:2e:
                    06:ad:12:2c:b2:1e:98:5c:d3:5e:61:8b:29:58:64:
                    32:3d:e6:c2:b7:12:52:a7:0f:fe:a9:55:c7:8d:dc:
                    d6:cf:b1:92:fd:92:0a:62:a6:95:d5:b3:5f:65:e6:
                    b8:cc:f8:4f:a3:6f:de:e5:14:fe:9d:d6:4a:6e:e8:
                    19:01:de:8b:bd:f4:9c:83:45:60:30:47:0b:da:1c:
                    42:cc:25:7a:ef:06:5b:86:34:4a:02:32:37:40:76:
                    92:e2:17:af:b4:b4:e7:1a:56:35:5a:07:69:3b:f7:
                    c6:79:3c:5d:0d:c6:d1:11:13:02:f9:93:01:03:27:
                    76:00:86:f9:ef:e3:c7:61:c0:8a:23:cb:ee:44:c4:
                    73:33:59:2b:b8:41:a4:c9:86:0b:00:3f:35:a1:c8:
                    58:24:51:65:af:f2:62:e8:54:26:1d:ea:6b:c0:62:
                    46:44:23:92:87:66:33:15:fb:0e:80:ab:2e:f7:75:
                    16:5e:c0:00:1a:02:e9:0f:b3:c4:64:73:dd:62:e8:
                    7b:43:af:18:80:9b:f1:bb:a6:9f:f6:64:66:e3:d4:
                    24:99
                Exponent: 65537 (0x10001)
        X509v3 extensions:
            X509v3 Basic Constraints: 
                CA:FALSE
            Netscape Comment: 
                OpenSSL Generated Certificate
            X509v3 Subject Key Identifier: 
                BC:78:00:0A:C4:EE:EE:4E:63:CC:7B:AE:D2:A5:68:91:D8:ED:E3:80
            X509v3 Authority Key Identifier: 
                keyid:5A:B5:A5:79:95:34:08:FB:4C:17:60:D3:92:88:E7:81:76:C6:B4:3D
                DirName:/C=SE/ST=Stockholm/L=Kista/O=RISE/O=Security Lab/OU=5GEnsure
                serial:B2:DC:A2:EA:37:CA:3A:E6

    Signature Algorithm: md5WithRSAEncryption
         4b:22:3a:96:3d:52:7b:27:56:73:13:a3:8d:33:5a:c9:e3:ec:
         51:6c:75:60:11:14:e2:12:16:19:a7:c9:cc:78:75:79:0c:f2:
         06:1a:f3:18:88:a0:41:c2:6f:cd:3f:07:67:88:5d:d8:a3:50:
         8d:be:34:6e:47:e8:e8:8f:06:62:e1:c7:b3:c5:52:d1:1a:96:
         e4:1a:94:b7:ba:a5:ec:6d:01:08:3e:b5:7e:f9:65:31:5b:1f:
         4a:8a:b4:2d:b0:43:a8:5c:2b:48:39:91:52:ba:20:df:5f:c6:
         22:79:97:52:3b:db:96:b7:03:3b:84:12:ce:6f:4b:cf:21:62:
         4f:eb
-----BEGIN CERTIFICATE-----
MIIDdTCCAt6gAwIBAgIBGTANBgkqhkiG9w0BAQQFADBqMQswCQYDVQQGEwJTRTES
MBAGA1UECBMJU3RvY2tob2xtMQ4wDAYDVQQHEwVLaXN0YTENMAsGA1UEChMEUklT
RTEVMBMGA1UEChMMU2VjdXJpdHkgTGFiMREwDwYDVQQLEwg1R0Vuc3VyZTAeFw0x
OTA0MDQxMzUwMDJaFw0yMDA0MDMxMzUwMDJaMBYxFDASBgNVBAMTC29wZW52c3dp
dGNoMIIBIjANBgkqhkiG9w0BAQEFAAOCAQ8AMIIBCgKCAQEAoNCuRyrf66y36W5J
JPfYlPLHMTrkc0gb0BNZoA9ttRKcfUkRnzUY6r571C4GrRIssh6YXNNeYYspWGQy
PebCtxJSpw/+qVXHjdzWz7GS/ZIKYqaV1bNfZea4zPhPo2/e5RT+ndZKbugZAd6L
vfScg0VgMEcL2hxCzCV67wZbhjRKAjI3QHaS4hevtLTnGlY1WgdpO/fGeTxdDcbR
ERMC+ZMBAyd2AIb57+PHYcCKI8vuRMRzM1kruEGkyYYLAD81ochYJFFlr/Ji6FQm
HeprwGJGRCOSh2YzFfsOgKsu93UWXsAAGgLpD7PEZHPdYuh7Q68YgJvxu6af9mRm
49QkmQIDAQABo4H6MIH3MAkGA1UdEwQCMAAwLAYJYIZIAYb4QgENBB8WHU9wZW5T
U0wgR2VuZXJhdGVkIENlcnRpZmljYXRlMB0GA1UdDgQWBBS8eAAKxO7uTmPMe67S
pWiR2O3jgDCBnAYDVR0jBIGUMIGRgBRataV5lTQI+0wXYNOSiOeBdsa0PaFupGww
ajELMAkGA1UEBhMCU0UxEjAQBgNVBAgTCVN0b2NraG9sbTEOMAwGA1UEBxMFS2lz
dGExDTALBgNVBAoTBFJJU0UxFTATBgNVBAoTDFNlY3VyaXR5IExhYjERMA8GA1UE
CxMINUdFbnN1cmWCCQCy3KLqN8o65jANBgkqhkiG9w0BAQQFAAOBgQBLIjqWPVJ7
J1ZzE6ONM1rJ4+xRbHVgERTiEhYZp8nMeHV5DPIGGvMYiKBBwm/NPwdniF3Yo1CN
vjRuR+jojwZi4cezxVLRGpbkGpS3uqXsbQEIPrV++WUxWx9KirQtsEOoXCtIOZFS
uiDfX8YieZdSO9uWtwM7hBLOb0vPIWJP6w==
-----END CERTIFICATE-----
