Certificate:
    Data:
        Version: 3 (0x2)
        Serial Number: 26 (0x1a)
    Signature Algorithm: md5WithRSAEncryption
        Issuer: C=SE, ST=Stockholm, L=Kista, O=RISE, O=Security Lab, OU=5GEnsure
        Validity
            Not Before: Apr  4 13:53:13 2019 GMT
            Not After : Apr  3 13:53:13 2020 GMT
        Subject: CN=openvswitch
        Subject Public Key Info:
            Public Key Algorithm: rsaEncryption
                Public-Key: (2048 bit)
                Modulus:
                    00:b0:b0:15:fd:26:32:19:7d:72:c9:94:d8:cb:e1:
                    fa:e7:f9:4b:26:06:58:0c:d0:55:93:d3:11:02:63:
                    99:24:22:50:6c:73:77:50:6d:b3:dc:e7:78:ca:4e:
                    9f:e1:da:af:9f:1e:c1:95:a9:57:13:b5:49:a0:f1:
                    23:fe:e0:03:07:6a:92:2f:07:44:a4:ae:85:96:6a:
                    b8:de:fc:19:b8:51:ec:10:d3:fa:67:1e:7b:ab:89:
                    24:d2:5d:73:89:b4:67:03:a4:af:31:9f:05:4f:84:
                    84:f0:82:7e:95:b9:e1:9f:17:83:06:ae:6e:7f:fc:
                    cb:b4:ab:25:3e:3d:73:c4:19:17:3b:1b:81:c1:e4:
                    a2:95:81:c1:bc:22:18:98:f6:e7:d2:1c:94:62:34:
                    0a:84:b9:a9:b5:1c:5a:5d:0b:9d:51:14:12:27:c4:
                    fe:ac:63:5e:82:e9:59:d0:23:a4:98:c3:4a:98:28:
                    2c:42:9e:9b:e9:1a:31:00:b3:eb:38:1a:67:a7:17:
                    e6:af:2f:92:fd:b8:14:f0:81:5a:25:88:66:80:86:
                    e8:36:08:aa:80:e8:ca:42:16:56:7a:b1:64:50:50:
                    63:4a:9f:bf:42:1f:23:c0:11:91:26:ce:b4:7e:f0:
                    a1:d3:3c:1c:1c:fa:91:64:96:db:a1:f5:0f:e4:6d:
                    27:c1
                Exponent: 65537 (0x10001)
        X509v3 extensions:
            X509v3 Basic Constraints: 
                CA:FALSE
            Netscape Comment: 
                OpenSSL Generated Certificate
            X509v3 Subject Key Identifier: 
                E5:4C:6A:42:8B:28:0C:59:2A:3B:DC:55:5E:74:CA:FC:32:EE:C3:F0
            X509v3 Authority Key Identifier: 
                keyid:5A:B5:A5:79:95:34:08:FB:4C:17:60:D3:92:88:E7:81:76:C6:B4:3D
                DirName:/C=SE/ST=Stockholm/L=Kista/O=RISE/O=Security Lab/OU=5GEnsure
                serial:B2:DC:A2:EA:37:CA:3A:E6

    Signature Algorithm: md5WithRSAEncryption
         a7:cb:5d:f9:c8:03:27:56:d9:af:43:6f:b6:ca:95:f1:0f:aa:
         d0:e0:c0:b9:36:67:93:b8:4a:32:8c:ca:69:88:e7:54:23:8d:
         3b:23:6f:3b:df:09:3f:58:ab:79:ee:ec:35:c2:b1:e5:3c:b4:
         37:b1:4d:78:f5:40:40:c7:1c:5d:9a:d3:7f:00:13:d2:f9:f3:
         d4:f6:21:00:0d:74:dc:7e:f4:b7:ee:bf:52:b1:c1:f7:55:0e:
         a5:ef:48:63:b8:8a:c0:21:be:86:bb:11:35:a5:0c:31:e4:c3:
         fd:d9:3a:8c:19:e6:66:fc:a8:05:e1:5c:59:c5:3b:5a:b0:2c:
         4a:88
-----BEGIN CERTIFICATE-----
MIIDdTCCAt6gAwIBAgIBGjANBgkqhkiG9w0BAQQFADBqMQswCQYDVQQGEwJTRTES
MBAGA1UECBMJU3RvY2tob2xtMQ4wDAYDVQQHEwVLaXN0YTENMAsGA1UEChMEUklT
RTEVMBMGA1UEChMMU2VjdXJpdHkgTGFiMREwDwYDVQQLEwg1R0Vuc3VyZTAeFw0x
OTA0MDQxMzUzMTNaFw0yMDA0MDMxMzUzMTNaMBYxFDASBgNVBAMTC29wZW52c3dp
dGNoMIIBIjANBgkqhkiG9w0BAQEFAAOCAQ8AMIIBCgKCAQEAsLAV/SYyGX1yyZTY
y+H65/lLJgZYDNBVk9MRAmOZJCJQbHN3UG2z3Od4yk6f4dqvnx7BlalXE7VJoPEj
/uADB2qSLwdEpK6Flmq43vwZuFHsENP6Zx57q4kk0l1zibRnA6SvMZ8FT4SE8IJ+
lbnhnxeDBq5uf/zLtKslPj1zxBkXOxuBweSilYHBvCIYmPbn0hyUYjQKhLmptRxa
XQudURQSJ8T+rGNegulZ0COkmMNKmCgsQp6b6RoxALPrOBpnpxfmry+S/bgU8IFa
JYhmgIboNgiqgOjKQhZWerFkUFBjSp+/Qh8jwBGRJs60fvCh0zwcHPqRZJbbofUP
5G0nwQIDAQABo4H6MIH3MAkGA1UdEwQCMAAwLAYJYIZIAYb4QgENBB8WHU9wZW5T
U0wgR2VuZXJhdGVkIENlcnRpZmljYXRlMB0GA1UdDgQWBBTlTGpCiygMWSo73FVe
dMr8Mu7D8DCBnAYDVR0jBIGUMIGRgBRataV5lTQI+0wXYNOSiOeBdsa0PaFupGww
ajELMAkGA1UEBhMCU0UxEjAQBgNVBAgTCVN0b2NraG9sbTEOMAwGA1UEBxMFS2lz
dGExDTALBgNVBAoTBFJJU0UxFTATBgNVBAoTDFNlY3VyaXR5IExhYjERMA8GA1UE
CxMINUdFbnN1cmWCCQCy3KLqN8o65jANBgkqhkiG9w0BAQQFAAOBgQCny135yAMn
VtmvQ2+2ypXxD6rQ4MC5NmeTuEoyjMppiOdUI407I2873wk/WKt57uw1wrHlPLQ3
sU149UBAxxxdmtN/ABPS+fPU9iEADXTcfvS37r9SscH3VQ6l70hjuIrAIb6GuxE1
pQwx5MP92TqMGeZm/KgF4VxZxTtasCxKiA==
-----END CERTIFICATE-----
