Certificate:
    Data:
        Version: 3 (0x2)
        Serial Number: 27 (0x1b)
    Signature Algorithm: md5WithRSAEncryption
        Issuer: C=SE, ST=Stockholm, L=Kista, O=RISE, O=Security Lab, OU=5GEnsure
        Validity
            Not Before: Apr  4 13:59:44 2019 GMT
            Not After : Apr  3 13:59:44 2020 GMT
        Subject: CN=openvswitch
        Subject Public Key Info:
            Public Key Algorithm: rsaEncryption
                Public-Key: (2048 bit)
                Modulus:
                    00:94:ac:e2:46:e0:88:9f:19:47:33:0f:65:df:f6:
                    99:c1:11:82:e6:7d:34:2d:fe:df:73:b2:b5:1d:ea:
                    05:ce:82:d5:70:d0:b6:4d:da:d5:44:9a:1a:12:8f:
                    a5:82:86:1f:be:03:a6:22:83:ec:38:63:7f:29:3f:
                    88:81:3b:e5:2b:06:62:47:b7:a9:43:e2:59:2f:ef:
                    1d:64:b3:ef:3b:98:fb:3e:12:ff:26:bc:71:3a:69:
                    cc:64:37:45:1a:50:f8:de:57:e3:c3:01:a6:69:98:
                    8a:e4:a4:d5:d1:f9:da:16:29:dc:2d:32:64:4c:59:
                    5c:bd:87:2f:82:df:41:c1:92:d9:0d:67:9b:19:12:
                    e6:21:2e:8f:90:5f:81:60:ff:5a:9a:84:5f:5e:fc:
                    49:b9:d9:18:28:2f:76:ac:2c:35:b2:1f:a5:90:ee:
                    86:1d:3f:ee:c5:1e:db:b9:43:22:eb:a3:18:11:27:
                    4d:66:86:87:17:97:5d:f8:a8:e0:44:29:9b:f8:8d:
                    6f:c3:2f:1a:7f:e2:ae:d2:c5:4c:f6:ca:16:f3:55:
                    53:4c:cb:0e:fd:dc:e7:95:4b:62:0b:48:6e:72:77:
                    a7:26:ab:d2:7a:94:65:0c:88:ed:f1:98:a7:c4:63:
                    98:4c:fd:6c:21:15:06:f4:7e:37:39:21:29:d3:66:
                    60:b3
                Exponent: 65537 (0x10001)
        X509v3 extensions:
            X509v3 Basic Constraints: 
                CA:FALSE
            Netscape Comment: 
                OpenSSL Generated Certificate
            X509v3 Subject Key Identifier: 
                70:50:AE:3F:CC:2D:35:60:99:1C:7F:1B:23:19:17:50:96:7E:65:4E
            X509v3 Authority Key Identifier: 
                keyid:5A:B5:A5:79:95:34:08:FB:4C:17:60:D3:92:88:E7:81:76:C6:B4:3D
                DirName:/C=SE/ST=Stockholm/L=Kista/O=RISE/O=Security Lab/OU=5GEnsure
                serial:B2:DC:A2:EA:37:CA:3A:E6

    Signature Algorithm: md5WithRSAEncryption
         3c:f5:b1:74:7c:f5:ad:d7:31:e0:56:d5:00:70:92:d0:f1:b0:
         28:8d:d5:57:a9:0b:ac:7a:66:41:1c:d0:18:46:05:b2:1a:e8:
         b9:83:78:38:06:47:6e:f0:1f:29:71:af:dd:44:ac:36:f0:b9:
         8e:cc:6a:27:12:cc:9b:9a:8c:f6:f6:b7:88:a7:ab:34:e8:a5:
         58:ed:0b:8c:78:fd:41:a3:6d:48:a6:c5:b8:ce:ae:f5:77:f0:
         2d:04:1a:53:92:73:73:b6:f8:19:3d:45:70:b4:03:38:bc:ed:
         8a:00:49:85:54:b1:81:d9:bc:92:49:ea:8e:a9:96:79:fb:98:
         02:bc
-----BEGIN CERTIFICATE-----
MIIDdTCCAt6gAwIBAgIBGzANBgkqhkiG9w0BAQQFADBqMQswCQYDVQQGEwJTRTES
MBAGA1UECBMJU3RvY2tob2xtMQ4wDAYDVQQHEwVLaXN0YTENMAsGA1UEChMEUklT
RTEVMBMGA1UEChMMU2VjdXJpdHkgTGFiMREwDwYDVQQLEwg1R0Vuc3VyZTAeFw0x
OTA0MDQxMzU5NDRaFw0yMDA0MDMxMzU5NDRaMBYxFDASBgNVBAMTC29wZW52c3dp
dGNoMIIBIjANBgkqhkiG9w0BAQEFAAOCAQ8AMIIBCgKCAQEAlKziRuCInxlHMw9l
3/aZwRGC5n00Lf7fc7K1HeoFzoLVcNC2TdrVRJoaEo+lgoYfvgOmIoPsOGN/KT+I
gTvlKwZiR7epQ+JZL+8dZLPvO5j7PhL/JrxxOmnMZDdFGlD43lfjwwGmaZiK5KTV
0fnaFincLTJkTFlcvYcvgt9BwZLZDWebGRLmIS6PkF+BYP9amoRfXvxJudkYKC92
rCw1sh+lkO6GHT/uxR7buUMi66MYESdNZoaHF5dd+KjgRCmb+I1vwy8af+Ku0sVM
9soW81VTTMsO/dznlUtiC0hucnenJqvSepRlDIjt8ZinxGOYTP1sIRUG9H43OSEp
02ZgswIDAQABo4H6MIH3MAkGA1UdEwQCMAAwLAYJYIZIAYb4QgENBB8WHU9wZW5T
U0wgR2VuZXJhdGVkIENlcnRpZmljYXRlMB0GA1UdDgQWBBRwUK4/zC01YJkcfxsj
GRdQln5lTjCBnAYDVR0jBIGUMIGRgBRataV5lTQI+0wXYNOSiOeBdsa0PaFupGww
ajELMAkGA1UEBhMCU0UxEjAQBgNVBAgTCVN0b2NraG9sbTEOMAwGA1UEBxMFS2lz
dGExDTALBgNVBAoTBFJJU0UxFTATBgNVBAoTDFNlY3VyaXR5IExhYjERMA8GA1UE
CxMINUdFbnN1cmWCCQCy3KLqN8o65jANBgkqhkiG9w0BAQQFAAOBgQA89bF0fPWt
1zHgVtUAcJLQ8bAojdVXqQusemZBHNAYRgWyGui5g3g4Bkdu8B8pca/dRKw28LmO
zGonEsybmoz29reIp6s06KVY7QuMeP1Bo21IpsW4zq71d/AtBBpTknNztvgZPUVw
tAM4vO2KAEmFVLGB2bySSeqOqZZ5+5gCvA==
-----END CERTIFICATE-----
