Certificate:
    Data:
        Version: 3 (0x2)
        Serial Number: 28 (0x1c)
    Signature Algorithm: md5WithRSAEncryption
        Issuer: C=SE, ST=Stockholm, L=Kista, O=RISE, O=Security Lab, OU=5GEnsure
        Validity
            Not Before: Apr  4 14:00:07 2019 GMT
            Not After : Apr  3 14:00:07 2020 GMT
        Subject: CN=openvswitch
        Subject Public Key Info:
            Public Key Algorithm: rsaEncryption
                Public-Key: (2048 bit)
                Modulus:
                    00:a1:a1:1d:eb:bc:f4:7d:bf:41:e6:c4:78:2a:e6:
                    5f:74:37:63:2d:67:11:74:8c:95:39:bb:ae:d8:59:
                    c7:77:b5:91:3e:4a:15:fc:12:98:77:64:71:69:c8:
                    9a:60:2e:7f:86:eb:c1:76:e2:e6:80:15:02:65:22:
                    54:5b:17:08:48:bd:a0:d3:80:ed:f6:5e:98:61:94:
                    14:6a:ac:5e:58:c5:c2:72:ce:e4:5e:6d:dc:17:7d:
                    06:87:d2:90:0e:44:ac:09:f9:fa:30:17:21:aa:98:
                    7d:e7:d4:8e:44:74:cf:90:32:e7:12:3a:79:f4:d8:
                    64:31:1b:68:10:5a:cf:20:b1:a2:ab:fc:32:bf:8c:
                    94:03:0b:50:8c:98:a3:b1:a8:84:f8:de:d6:7c:15:
                    c2:23:7f:18:80:73:b2:35:3d:78:a4:26:4f:0e:f5:
                    bd:2c:70:c4:b1:5d:b5:6b:b0:1b:51:dc:45:fd:0f:
                    11:56:30:dd:e6:22:19:d8:4c:ed:a5:3f:7e:45:74:
                    ec:8c:7a:ab:8f:c5:f3:dd:26:df:33:40:ad:65:4c:
                    fd:72:6e:b4:2b:de:31:3e:db:7f:1e:f9:19:66:c8:
                    1c:de:7b:21:4c:06:80:f2:06:0e:3d:d6:5a:6a:0d:
                    6f:79:c6:57:39:50:54:9f:e9:46:bd:b8:3e:72:80:
                    b0:ed
                Exponent: 65537 (0x10001)
        X509v3 extensions:
            X509v3 Basic Constraints: 
                CA:FALSE
            Netscape Comment: 
                OpenSSL Generated Certificate
            X509v3 Subject Key Identifier: 
                D2:44:59:CA:59:58:3E:DE:B5:5B:20:76:93:69:3B:DA:60:3D:88:0E
            X509v3 Authority Key Identifier: 
                keyid:5A:B5:A5:79:95:34:08:FB:4C:17:60:D3:92:88:E7:81:76:C6:B4:3D
                DirName:/C=SE/ST=Stockholm/L=Kista/O=RISE/O=Security Lab/OU=5GEnsure
                serial:B2:DC:A2:EA:37:CA:3A:E6

    Signature Algorithm: md5WithRSAEncryption
         7d:55:25:0c:e5:69:62:27:c8:3d:a2:b6:91:fb:25:59:b1:0e:
         24:e1:29:79:4c:c2:f5:b9:d7:96:b9:22:d0:d4:97:e8:69:62:
         b6:b6:d6:11:d7:ab:ec:b7:e4:8d:9e:1d:d7:7a:57:03:eb:3d:
         b1:25:39:f0:e3:5e:d2:cc:13:56:76:be:5e:1a:17:03:81:c9:
         9e:40:48:0a:a0:85:94:7d:d0:6d:45:b7:15:b6:4b:cb:6b:a7:
         7d:c8:91:ae:6d:fd:62:1a:93:e2:7b:b3:7d:91:8c:9d:34:3b:
         76:a5:49:03:5b:85:24:b3:7a:7c:8a:8c:2c:4d:12:76:2e:a4:
         e5:7f
-----BEGIN CERTIFICATE-----
MIIDdTCCAt6gAwIBAgIBHDANBgkqhkiG9w0BAQQFADBqMQswCQYDVQQGEwJTRTES
MBAGA1UECBMJU3RvY2tob2xtMQ4wDAYDVQQHEwVLaXN0YTENMAsGA1UEChMEUklT
RTEVMBMGA1UEChMMU2VjdXJpdHkgTGFiMREwDwYDVQQLEwg1R0Vuc3VyZTAeFw0x
OTA0MDQxNDAwMDdaFw0yMDA0MDMxNDAwMDdaMBYxFDASBgNVBAMTC29wZW52c3dp
dGNoMIIBIjANBgkqhkiG9w0BAQEFAAOCAQ8AMIIBCgKCAQEAoaEd67z0fb9B5sR4
KuZfdDdjLWcRdIyVObuu2FnHd7WRPkoV/BKYd2RxaciaYC5/huvBduLmgBUCZSJU
WxcISL2g04Dt9l6YYZQUaqxeWMXCcs7kXm3cF30Gh9KQDkSsCfn6MBchqph959SO
RHTPkDLnEjp59NhkMRtoEFrPILGiq/wyv4yUAwtQjJijsaiE+N7WfBXCI38YgHOy
NT14pCZPDvW9LHDEsV21a7AbUdxF/Q8RVjDd5iIZ2EztpT9+RXTsjHqrj8Xz3Sbf
M0CtZUz9cm60K94xPtt/HvkZZsgc3nshTAaA8gYOPdZaag1vecZXOVBUn+lGvbg+
coCw7QIDAQABo4H6MIH3MAkGA1UdEwQCMAAwLAYJYIZIAYb4QgENBB8WHU9wZW5T
U0wgR2VuZXJhdGVkIENlcnRpZmljYXRlMB0GA1UdDgQWBBTSRFnKWVg+3rVbIHaT
aTvaYD2IDjCBnAYDVR0jBIGUMIGRgBRataV5lTQI+0wXYNOSiOeBdsa0PaFupGww
ajELMAkGA1UEBhMCU0UxEjAQBgNVBAgTCVN0b2NraG9sbTEOMAwGA1UEBxMFS2lz
dGExDTALBgNVBAoTBFJJU0UxFTATBgNVBAoTDFNlY3VyaXR5IExhYjERMA8GA1UE
CxMINUdFbnN1cmWCCQCy3KLqN8o65jANBgkqhkiG9w0BAQQFAAOBgQB9VSUM5Wli
J8g9oraR+yVZsQ4k4Sl5TML1udeWuSLQ1JfoaWK2ttYR16vst+SNnh3XelcD6z2x
JTnw417SzBNWdr5eGhcDgcmeQEgKoIWUfdBtRbcVtkvLa6d9yJGubf1iGpPie7N9
kYydNDt2pUkDW4Uks3p8iowsTRJ2LqTlfw==
-----END CERTIFICATE-----
