Certificate:
    Data:
        Version: 3 (0x2)
        Serial Number: 29 (0x1d)
    Signature Algorithm: md5WithRSAEncryption
        Issuer: C=SE, ST=Stockholm, L=Kista, O=RISE, O=Security Lab, OU=5GEnsure
        Validity
            Not Before: Apr  4 14:00:36 2019 GMT
            Not After : Apr  3 14:00:36 2020 GMT
        Subject: CN=openvswitch
        Subject Public Key Info:
            Public Key Algorithm: rsaEncryption
                Public-Key: (2048 bit)
                Modulus:
                    00:87:df:41:71:7e:68:fe:eb:86:17:0f:d8:21:ae:
                    e3:3f:0c:a9:4c:4b:99:c3:4c:27:0d:51:63:b3:5e:
                    d6:eb:c5:fb:76:b9:cc:f0:f3:86:fd:64:cb:da:a4:
                    c2:9f:2f:f0:7e:b0:4b:a3:32:db:d5:6b:c4:45:e4:
                    da:3d:74:91:b8:46:e5:88:af:64:5d:18:d7:4a:85:
                    54:6b:52:4e:de:9d:7a:6b:c0:bb:2d:db:7e:92:14:
                    47:06:98:54:71:74:c1:9f:bd:35:24:fe:d2:ac:5a:
                    a2:b2:ee:8a:9e:c6:9d:b0:35:11:4f:cd:9a:ec:67:
                    e4:4e:c7:7b:02:a6:61:68:5f:40:c6:fb:ed:af:d3:
                    74:41:40:a7:d6:9b:31:3b:05:3f:2b:5e:63:f0:ae:
                    89:fe:c6:07:fd:bd:1d:f2:df:42:a0:12:e2:35:00:
                    f3:07:52:a0:1f:00:ae:ab:9d:b3:a7:74:cd:10:9d:
                    40:bc:35:63:be:8a:8f:ca:99:46:2f:28:26:4b:21:
                    37:f7:8a:ba:c3:15:9b:76:b5:09:dd:7b:56:bc:1a:
                    2b:4e:40:97:28:ba:5c:37:99:7c:a2:e1:f4:aa:57:
                    27:7a:fa:2c:67:64:f6:81:1d:3d:3a:0b:5a:e6:85:
                    bc:a8:96:b6:43:95:2f:c1:03:56:1f:6e:69:c6:bc:
                    d3:17
                Exponent: 65537 (0x10001)
        X509v3 extensions:
            X509v3 Basic Constraints: 
                CA:FALSE
            Netscape Comment: 
                OpenSSL Generated Certificate
            X509v3 Subject Key Identifier: 
                B8:A1:DD:DD:F5:56:95:C6:1C:55:BC:A8:6D:6A:89:57:4F:A5:79:7F
            X509v3 Authority Key Identifier: 
                keyid:5A:B5:A5:79:95:34:08:FB:4C:17:60:D3:92:88:E7:81:76:C6:B4:3D
                DirName:/C=SE/ST=Stockholm/L=Kista/O=RISE/O=Security Lab/OU=5GEnsure
                serial:B2:DC:A2:EA:37:CA:3A:E6

    Signature Algorithm: md5WithRSAEncryption
         04:48:2e:ab:bf:cf:0b:ae:cd:42:4f:b8:81:d1:4d:73:5a:80:
         0c:96:85:06:69:ba:1d:71:f5:dc:68:5c:7d:20:da:fd:7a:1e:
         18:c9:f4:06:38:f0:4d:93:68:c2:93:2b:32:ab:2d:3b:60:c2:
         6a:f7:3a:2a:2c:0e:0a:5c:64:27:38:29:ca:cd:e3:4b:0f:51:
         c7:08:c1:bb:0b:38:dc:22:ac:e3:f2:3f:4f:0b:40:40:ed:25:
         56:97:1c:74:9b:94:35:4c:62:92:50:e8:27:16:8a:79:45:dc:
         91:1c:21:d1:c4:23:09:73:2a:51:a2:0e:be:1e:bd:0c:cb:32:
         83:8c
-----BEGIN CERTIFICATE-----
MIIDdTCCAt6gAwIBAgIBHTANBgkqhkiG9w0BAQQFADBqMQswCQYDVQQGEwJTRTES
MBAGA1UECBMJU3RvY2tob2xtMQ4wDAYDVQQHEwVLaXN0YTENMAsGA1UEChMEUklT
RTEVMBMGA1UEChMMU2VjdXJpdHkgTGFiMREwDwYDVQQLEwg1R0Vuc3VyZTAeFw0x
OTA0MDQxNDAwMzZaFw0yMDA0MDMxNDAwMzZaMBYxFDASBgNVBAMTC29wZW52c3dp
dGNoMIIBIjANBgkqhkiG9w0BAQEFAAOCAQ8AMIIBCgKCAQEAh99BcX5o/uuGFw/Y
Ia7jPwypTEuZw0wnDVFjs17W68X7drnM8POG/WTL2qTCny/wfrBLozLb1WvEReTa
PXSRuEbliK9kXRjXSoVUa1JO3p16a8C7Ldt+khRHBphUcXTBn701JP7SrFqisu6K
nsadsDURT82a7GfkTsd7AqZhaF9Axvvtr9N0QUCn1psxOwU/K15j8K6J/sYH/b0d
8t9CoBLiNQDzB1KgHwCuq52zp3TNEJ1AvDVjvoqPyplGLygmSyE394q6wxWbdrUJ
3XtWvBorTkCXKLpcN5l8ouH0qlcnevosZ2T2gR09Ogta5oW8qJa2Q5UvwQNWH25p
xrzTFwIDAQABo4H6MIH3MAkGA1UdEwQCMAAwLAYJYIZIAYb4QgENBB8WHU9wZW5T
U0wgR2VuZXJhdGVkIENlcnRpZmljYXRlMB0GA1UdDgQWBBS4od3d9VaVxhxVvKht
aolXT6V5fzCBnAYDVR0jBIGUMIGRgBRataV5lTQI+0wXYNOSiOeBdsa0PaFupGww
ajELMAkGA1UEBhMCU0UxEjAQBgNVBAgTCVN0b2NraG9sbTEOMAwGA1UEBxMFS2lz
dGExDTALBgNVBAoTBFJJU0UxFTATBgNVBAoTDFNlY3VyaXR5IExhYjERMA8GA1UE
CxMINUdFbnN1cmWCCQCy3KLqN8o65jANBgkqhkiG9w0BAQQFAAOBgQAESC6rv88L
rs1CT7iB0U1zWoAMloUGabodcfXcaFx9INr9eh4YyfQGOPBNk2jCkysyqy07YMJq
9zoqLA4KXGQnOCnKzeNLD1HHCMG7CzjcIqzj8j9PC0BA7SVWlxx0m5Q1TGKSUOgn
Fop5RdyRHCHRxCMJcypRog6+Hr0MyzKDjA==
-----END CERTIFICATE-----
