Certificate:
    Data:
        Version: 3 (0x2)
        Serial Number: 30 (0x1e)
    Signature Algorithm: md5WithRSAEncryption
        Issuer: C=SE, ST=Stockholm, L=Kista, O=RISE, O=Security Lab, OU=5GEnsure
        Validity
            Not Before: Apr  4 14:01:28 2019 GMT
            Not After : Apr  3 14:01:28 2020 GMT
        Subject: CN=openvswitch
        Subject Public Key Info:
            Public Key Algorithm: rsaEncryption
                Public-Key: (2048 bit)
                Modulus:
                    00:e1:9a:de:45:ea:d9:c3:3a:7c:b1:60:44:e0:f7:
                    13:13:a5:c0:78:b6:78:40:16:a2:cf:08:83:1a:3a:
                    fa:62:18:fb:ae:b7:67:5f:3c:d9:d2:f7:02:3a:f9:
                    94:54:9e:22:ee:5a:76:98:a2:8f:88:fc:df:4b:f3:
                    c6:aa:c4:2e:75:6b:2d:02:2d:10:c8:6c:e5:bc:6c:
                    ac:e2:03:f4:5b:15:80:12:eb:92:da:ed:bd:06:a7:
                    68:44:fb:a0:52:d0:3f:fe:7f:37:e3:f5:6a:10:bb:
                    26:81:02:9c:1e:cb:5d:54:8d:9b:32:1e:15:dd:1f:
                    92:8b:49:75:c3:2e:e0:1c:48:c0:e1:32:ec:11:26:
                    3f:5a:a1:23:97:93:5c:1e:1e:30:1f:a5:fb:8f:4b:
                    1f:bb:1b:ee:6b:4c:6d:e6:6a:79:11:5d:a4:8c:ef:
                    e1:60:80:be:63:6c:3c:e5:ad:33:18:65:37:3c:33:
                    cb:50:91:18:6d:30:ea:7a:0c:3c:a4:45:48:e6:e0:
                    5d:0e:c0:7a:45:54:7e:b4:29:7c:e3:00:4b:1a:48:
                    6c:c0:b3:49:5e:20:44:1c:b2:ad:0b:8e:df:4c:f6:
                    5f:2f:69:b7:10:ec:ad:0e:a9:b3:45:15:36:3a:b3:
                    99:ac:84:3b:fa:f6:d0:8a:45:c2:0e:33:c8:ff:35:
                    27:5d
                Exponent: 65537 (0x10001)
        X509v3 extensions:
            X509v3 Basic Constraints: 
                CA:FALSE
            Netscape Comment: 
                OpenSSL Generated Certificate
            X509v3 Subject Key Identifier: 
                EB:55:C3:62:3D:5B:FB:E3:A8:FC:B3:87:A2:82:CF:9F:52:9D:2C:7A
            X509v3 Authority Key Identifier: 
                keyid:5A:B5:A5:79:95:34:08:FB:4C:17:60:D3:92:88:E7:81:76:C6:B4:3D
                DirName:/C=SE/ST=Stockholm/L=Kista/O=RISE/O=Security Lab/OU=5GEnsure
                serial:B2:DC:A2:EA:37:CA:3A:E6

    Signature Algorithm: md5WithRSAEncryption
         72:28:ce:ff:97:fa:c3:ef:93:33:7e:35:ac:7d:57:54:d0:af:
         ff:e2:8f:92:8c:a2:d7:d0:d5:39:e7:e5:9c:fd:5f:9a:97:85:
         45:a9:1c:1d:aa:55:fc:de:56:90:5a:e5:db:e9:74:9a:5c:dd:
         c6:1c:ae:22:34:a9:14:89:3c:c1:9f:5a:b0:42:58:23:a1:7e:
         9c:bb:00:61:c5:92:c1:15:88:07:36:50:98:07:f3:1e:c5:2e:
         fa:73:dc:47:69:a5:b7:0e:b6:64:1c:2e:3b:96:48:f1:e2:99:
         b0:12:84:a4:5b:72:de:4f:7d:b1:4a:7b:ce:07:1c:1f:eb:c2:
         5e:79
-----BEGIN CERTIFICATE-----
MIIDdTCCAt6gAwIBAgIBHjANBgkqhkiG9w0BAQQFADBqMQswCQYDVQQGEwJTRTES
MBAGA1UECBMJU3RvY2tob2xtMQ4wDAYDVQQHEwVLaXN0YTENMAsGA1UEChMEUklT
RTEVMBMGA1UEChMMU2VjdXJpdHkgTGFiMREwDwYDVQQLEwg1R0Vuc3VyZTAeFw0x
OTA0MDQxNDAxMjhaFw0yMDA0MDMxNDAxMjhaMBYxFDASBgNVBAMTC29wZW52c3dp
dGNoMIIBIjANBgkqhkiG9w0BAQEFAAOCAQ8AMIIBCgKCAQEA4ZreRerZwzp8sWBE
4PcTE6XAeLZ4QBaizwiDGjr6Yhj7rrdnXzzZ0vcCOvmUVJ4i7lp2mKKPiPzfS/PG
qsQudWstAi0QyGzlvGys4gP0WxWAEuuS2u29BqdoRPugUtA//n834/VqELsmgQKc
HstdVI2bMh4V3R+Si0l1wy7gHEjA4TLsESY/WqEjl5NcHh4wH6X7j0sfuxvua0xt
5mp5EV2kjO/hYIC+Y2w85a0zGGU3PDPLUJEYbTDqegw8pEVI5uBdDsB6RVR+tCl8
4wBLGkhswLNJXiBEHLKtC47fTPZfL2m3EOytDqmzRRU2OrOZrIQ7+vbQikXCDjPI
/zUnXQIDAQABo4H6MIH3MAkGA1UdEwQCMAAwLAYJYIZIAYb4QgENBB8WHU9wZW5T
U0wgR2VuZXJhdGVkIENlcnRpZmljYXRlMB0GA1UdDgQWBBTrVcNiPVv746j8s4ei
gs+fUp0sejCBnAYDVR0jBIGUMIGRgBRataV5lTQI+0wXYNOSiOeBdsa0PaFupGww
ajELMAkGA1UEBhMCU0UxEjAQBgNVBAgTCVN0b2NraG9sbTEOMAwGA1UEBxMFS2lz
dGExDTALBgNVBAoTBFJJU0UxFTATBgNVBAoTDFNlY3VyaXR5IExhYjERMA8GA1UE
CxMINUdFbnN1cmWCCQCy3KLqN8o65jANBgkqhkiG9w0BAQQFAAOBgQByKM7/l/rD
75MzfjWsfVdU0K//4o+SjKLX0NU55+Wc/V+al4VFqRwdqlX83laQWuXb6XSaXN3G
HK4iNKkUiTzBn1qwQlgjoX6cuwBhxZLBFYgHNlCYB/MexS76c9xHaaW3DrZkHC47
lkjx4pmwEoSkW3LeT32xSnvOBxwf68JeeQ==
-----END CERTIFICATE-----
