Certificate:
    Data:
        Version: 3 (0x2)
        Serial Number: 31 (0x1f)
    Signature Algorithm: md5WithRSAEncryption
        Issuer: C=SE, ST=Stockholm, L=Kista, O=RISE, O=Security Lab, OU=5GEnsure
        Validity
            Not Before: Apr  4 14:01:46 2019 GMT
            Not After : Apr  3 14:01:46 2020 GMT
        Subject: CN=openvswitch
        Subject Public Key Info:
            Public Key Algorithm: rsaEncryption
                Public-Key: (2048 bit)
                Modulus:
                    00:8a:d4:e7:e1:5a:88:99:9a:7c:e3:11:8e:67:e9:
                    41:a0:d6:9b:64:ec:96:e3:de:34:d5:8e:ae:9f:48:
                    13:ac:2e:a8:b3:30:b5:ce:e9:df:98:79:2b:ea:e7:
                    16:d3:e7:71:14:ec:26:08:3f:30:cf:6c:67:1d:38:
                    5d:b4:ba:e4:8e:1c:c2:92:b7:13:f2:e4:f0:1c:60:
                    99:f4:f9:84:ec:b4:a7:b1:d5:fb:49:f1:f5:6d:7c:
                    2c:90:d3:be:1e:37:79:bc:7e:b6:56:f5:aa:6c:93:
                    9f:d6:2f:a3:07:83:5c:d2:73:e6:0e:e7:13:70:75:
                    50:44:b6:9e:26:11:7a:74:05:f1:ed:c0:48:84:8e:
                    61:44:3e:9a:c6:46:a0:09:f2:dd:94:30:83:a1:61:
                    8e:b9:b4:ae:63:c5:77:0c:cd:b9:ef:3b:ce:0d:e7:
                    c5:ad:b8:31:c1:e6:a0:ce:47:25:2b:68:5f:2b:1b:
                    c6:a4:51:de:06:ce:2c:63:dc:38:8e:72:7b:e6:c1:
                    5f:d0:a1:f7:e6:cc:10:3b:4a:03:32:fe:40:62:08:
                    d2:16:10:bd:f2:3e:2b:b2:77:45:84:1c:b1:d4:cd:
                    2a:41:6b:8a:01:c0:fd:71:d2:4b:b0:a6:c4:99:7b:
                    fc:ee:ff:65:7e:da:eb:31:69:36:04:2c:8b:6d:7d:
                    0a:cd
                Exponent: 65537 (0x10001)
        X509v3 extensions:
            X509v3 Basic Constraints: 
                CA:FALSE
            Netscape Comment: 
                OpenSSL Generated Certificate
            X509v3 Subject Key Identifier: 
                79:D5:67:EA:9C:C9:A4:C4:52:58:CF:2F:05:F4:4E:EF:D5:03:6D:CC
            X509v3 Authority Key Identifier: 
                keyid:5A:B5:A5:79:95:34:08:FB:4C:17:60:D3:92:88:E7:81:76:C6:B4:3D
                DirName:/C=SE/ST=Stockholm/L=Kista/O=RISE/O=Security Lab/OU=5GEnsure
                serial:B2:DC:A2:EA:37:CA:3A:E6

    Signature Algorithm: md5WithRSAEncryption
         44:86:44:43:49:9c:e7:57:bb:c8:51:5b:68:88:f3:8e:e0:d8:
         23:05:c1:f9:89:dd:ea:b0:05:a3:58:de:ae:a6:4c:26:9b:62:
         ef:4a:bc:a2:e5:3f:fd:04:50:22:60:ae:0d:ba:6e:88:1b:f4:
         a3:fe:98:b5:15:d0:44:42:61:e4:3c:6c:61:43:ee:86:b1:23:
         19:74:4c:68:d3:0a:6a:04:49:1b:93:e4:38:8f:dc:3e:0b:4e:
         85:5c:9a:26:f5:5a:46:c3:f2:72:2a:6a:ec:3f:27:2a:f3:4c:
         5a:00:5b:fa:23:b6:96:61:14:0e:61:c4:99:c3:b5:81:e3:72:
         c4:91
-----BEGIN CERTIFICATE-----
MIIDdTCCAt6gAwIBAgIBHzANBgkqhkiG9w0BAQQFADBqMQswCQYDVQQGEwJTRTES
MBAGA1UECBMJU3RvY2tob2xtMQ4wDAYDVQQHEwVLaXN0YTENMAsGA1UEChMEUklT
RTEVMBMGA1UEChMMU2VjdXJpdHkgTGFiMREwDwYDVQQLEwg1R0Vuc3VyZTAeFw0x
OTA0MDQxNDAxNDZaFw0yMDA0MDMxNDAxNDZaMBYxFDASBgNVBAMTC29wZW52c3dp
dGNoMIIBIjANBgkqhkiG9w0BAQEFAAOCAQ8AMIIBCgKCAQEAitTn4VqImZp84xGO
Z+lBoNabZOyW49401Y6un0gTrC6oszC1zunfmHkr6ucW0+dxFOwmCD8wz2xnHThd
tLrkjhzCkrcT8uTwHGCZ9PmE7LSnsdX7SfH1bXwskNO+Hjd5vH62VvWqbJOf1i+j
B4Nc0nPmDucTcHVQRLaeJhF6dAXx7cBIhI5hRD6axkagCfLdlDCDoWGOubSuY8V3
DM257zvODefFrbgxweagzkclK2hfKxvGpFHeBs4sY9w4jnJ75sFf0KH35swQO0oD
Mv5AYgjSFhC98j4rsndFhByx1M0qQWuKAcD9cdJLsKbEmXv87v9lftrrMWk2BCyL
bX0KzQIDAQABo4H6MIH3MAkGA1UdEwQCMAAwLAYJYIZIAYb4QgENBB8WHU9wZW5T
U0wgR2VuZXJhdGVkIENlcnRpZmljYXRlMB0GA1UdDgQWBBR51WfqnMmkxFJYzy8F
9E7v1QNtzDCBnAYDVR0jBIGUMIGRgBRataV5lTQI+0wXYNOSiOeBdsa0PaFupGww
ajELMAkGA1UEBhMCU0UxEjAQBgNVBAgTCVN0b2NraG9sbTEOMAwGA1UEBxMFS2lz
dGExDTALBgNVBAoTBFJJU0UxFTATBgNVBAoTDFNlY3VyaXR5IExhYjERMA8GA1UE
CxMINUdFbnN1cmWCCQCy3KLqN8o65jANBgkqhkiG9w0BAQQFAAOBgQBEhkRDSZzn
V7vIUVtoiPOO4NgjBcH5id3qsAWjWN6upkwmm2LvSryi5T/9BFAiYK4Num6IG/Sj
/pi1FdBEQmHkPGxhQ+6GsSMZdExo0wpqBEkbk+Q4j9w+C06FXJom9VpGw/JyKmrs
Pycq80xaAFv6I7aWYRQOYcSZw7WB43LEkQ==
-----END CERTIFICATE-----
