Certificate:
    Data:
        Version: 3 (0x2)
        Serial Number: 37 (0x25)
    Signature Algorithm: md5WithRSAEncryption
        Issuer: C=SE, ST=Stockholm, L=Kista, O=RISE, O=Security Lab, OU=5GEnsure
        Validity
            Not Before: Apr  4 14:02:41 2019 GMT
            Not After : Apr  3 14:02:41 2020 GMT
        Subject: CN=openvswitch
        Subject Public Key Info:
            Public Key Algorithm: rsaEncryption
                Public-Key: (2048 bit)
                Modulus:
                    00:ba:0e:f9:44:3f:e1:db:88:7a:b2:4a:dd:01:4d:
                    29:f3:0b:47:35:ee:42:d0:98:54:47:64:58:8d:93:
                    a0:9e:22:22:85:87:5f:1e:d5:ab:8b:b8:16:32:7e:
                    d2:ed:67:75:13:37:82:d1:74:38:5a:e0:f4:c3:4d:
                    37:1a:d4:ff:04:54:21:a1:c5:00:8c:2d:b4:43:e0:
                    45:04:d5:74:18:1e:c5:08:52:0b:aa:2b:f4:3d:c2:
                    64:97:41:24:10:3d:58:46:eb:55:8a:6c:20:86:8e:
                    0c:d7:54:93:91:e3:3b:04:0f:06:c6:25:10:0d:2c:
                    c5:4b:98:cf:43:d8:99:0e:39:45:20:71:39:46:b3:
                    ea:7b:6f:8d:d2:4e:2f:3c:2b:b1:d8:de:6e:f8:d1:
                    ad:37:99:f9:3e:89:db:15:14:25:05:12:d7:b7:01:
                    83:89:10:d5:de:fd:6a:82:d5:0f:21:1d:da:42:d4:
                    ec:bb:ad:94:59:20:3f:44:52:e6:63:db:f1:82:d3:
                    10:d0:35:b1:03:23:9d:12:ee:7b:61:42:62:58:6c:
                    29:29:22:74:18:75:0c:c1:32:85:85:70:2a:07:90:
                    bc:ad:f2:e0:f5:a9:90:41:ae:8b:a2:93:f6:16:2f:
                    54:20:75:60:d7:04:2e:55:ce:90:70:8f:59:e9:d3:
                    db:7d
                Exponent: 65537 (0x10001)
        X509v3 extensions:
            X509v3 Basic Constraints: 
                CA:FALSE
            Netscape Comment: 
                OpenSSL Generated Certificate
            X509v3 Subject Key Identifier: 
                43:36:AD:D4:58:0E:0C:0A:77:2A:13:74:E0:C7:40:7E:4B:A7:22:1C
            X509v3 Authority Key Identifier: 
                keyid:5A:B5:A5:79:95:34:08:FB:4C:17:60:D3:92:88:E7:81:76:C6:B4:3D
                DirName:/C=SE/ST=Stockholm/L=Kista/O=RISE/O=Security Lab/OU=5GEnsure
                serial:B2:DC:A2:EA:37:CA:3A:E6

    Signature Algorithm: md5WithRSAEncryption
         34:fc:e1:0c:d9:be:e6:7a:fe:f6:12:3f:07:47:d4:14:2e:77:
         22:27:06:8e:ae:42:9b:91:19:33:93:68:93:1f:f2:90:e3:41:
         5e:4b:53:a8:75:ef:da:0c:f7:9c:e1:03:5d:1e:22:80:51:15:
         66:f1:17:75:d6:47:a7:5c:e9:db:8d:ed:90:06:c0:b9:ea:55:
         9b:49:7f:c8:17:94:7f:66:5b:6f:e0:bf:b3:ac:81:bf:d8:36:
         2c:e7:94:f7:c1:70:2e:37:7b:fd:ba:76:02:68:0e:d6:1d:f4:
         6f:f0:b3:01:72:b4:5a:35:6e:d0:0e:f3:d4:fb:26:35:ed:3a:
         eb:04
-----BEGIN CERTIFICATE-----
MIIDdTCCAt6gAwIBAgIBJTANBgkqhkiG9w0BAQQFADBqMQswCQYDVQQGEwJTRTES
MBAGA1UECBMJU3RvY2tob2xtMQ4wDAYDVQQHEwVLaXN0YTENMAsGA1UEChMEUklT
RTEVMBMGA1UEChMMU2VjdXJpdHkgTGFiMREwDwYDVQQLEwg1R0Vuc3VyZTAeFw0x
OTA0MDQxNDAyNDFaFw0yMDA0MDMxNDAyNDFaMBYxFDASBgNVBAMTC29wZW52c3dp
dGNoMIIBIjANBgkqhkiG9w0BAQEFAAOCAQ8AMIIBCgKCAQEAug75RD/h24h6skrd
AU0p8wtHNe5C0JhUR2RYjZOgniIihYdfHtWri7gWMn7S7Wd1EzeC0XQ4WuD0w003
GtT/BFQhocUAjC20Q+BFBNV0GB7FCFILqiv0PcJkl0EkED1YRutVimwgho4M11ST
keM7BA8GxiUQDSzFS5jPQ9iZDjlFIHE5RrPqe2+N0k4vPCux2N5u+NGtN5n5Ponb
FRQlBRLXtwGDiRDV3v1qgtUPIR3aQtTsu62UWSA/RFLmY9vxgtMQ0DWxAyOdEu57
YUJiWGwpKSJ0GHUMwTKFhXAqB5C8rfLg9amQQa6LopP2Fi9UIHVg1wQuVc6QcI9Z
6dPbfQIDAQABo4H6MIH3MAkGA1UdEwQCMAAwLAYJYIZIAYb4QgENBB8WHU9wZW5T
U0wgR2VuZXJhdGVkIENlcnRpZmljYXRlMB0GA1UdDgQWBBRDNq3UWA4MCncqE3Tg
x0B+S6ciHDCBnAYDVR0jBIGUMIGRgBRataV5lTQI+0wXYNOSiOeBdsa0PaFupGww
ajELMAkGA1UEBhMCU0UxEjAQBgNVBAgTCVN0b2NraG9sbTEOMAwGA1UEBxMFS2lz
dGExDTALBgNVBAoTBFJJU0UxFTATBgNVBAoTDFNlY3VyaXR5IExhYjERMA8GA1UE
CxMINUdFbnN1cmWCCQCy3KLqN8o65jANBgkqhkiG9w0BAQQFAAOBgQA0/OEM2b7m
ev72Ej8HR9QULnciJwaOrkKbkRkzk2iTH/KQ40FeS1Oode/aDPec4QNdHiKAURVm
8Rd11kenXOnbje2QBsC56lWbSX/IF5R/Zltv4L+zrIG/2DYs55T3wXAuN3v9unYC
aA7WHfRv8LMBcrRaNW7QDvPU+yY17TrrBA==
-----END CERTIFICATE-----
