Certificate:
    Data:
        Version: 3 (0x2)
        Serial Number: 61 (0x3d)
    Signature Algorithm: md5WithRSAEncryption
        Issuer: C=SE, ST=Stockholm, L=Kista, O=RISE, O=Security Lab, OU=5GEnsure
        Validity
            Not Before: Apr  4 14:03:41 2019 GMT
            Not After : Apr  3 14:03:41 2020 GMT
        Subject: CN=openvswitch
        Subject Public Key Info:
            Public Key Algorithm: rsaEncryption
                Public-Key: (2048 bit)
                Modulus:
                    00:ba:0e:f9:44:3f:e1:db:88:7a:b2:4a:dd:01:4d:
                    29:f3:0b:47:35:ee:42:d0:98:54:47:64:58:8d:93:
                    a0:9e:22:22:85:87:5f:1e:d5:ab:8b:b8:16:32:7e:
                    d2:ed:67:75:13:37:82:d1:74:38:5a:e0:f4:c3:4d:
                    37:1a:d4:ff:04:54:21:a1:c5:00:8c:2d:b4:43:e0:
                    45:04:d5:74:18:1e:c5:08:52:0b:aa:2b:f4:3d:c2:
                    64:97:41:24:10:3d:58:46:eb:55:8a:6c:20:86:8e:
                    0c:d7:54:93:91:e3:3b:04:0f:06:c6:25:10:0d:2c:
                    c5:4b:98:cf:43:d8:99:0e:39:45:20:71:39:46:b3:
                    ea:7b:6f:8d:d2:4e:2f:3c:2b:b1:d8:de:6e:f8:d1:
                    ad:37:99:f9:3e:89:db:15:14:25:05:12:d7:b7:01:
                    83:89:10:d5:de:fd:6a:82:d5:0f:21:1d:da:42:d4:
                    ec:bb:ad:94:59:20:3f:44:52:e6:63:db:f1:82:d3:
                    10:d0:35:b1:03:23:9d:12:ee:7b:61:42:62:58:6c:
                    29:29:22:74:18:75:0c:c1:32:85:85:70:2a:07:90:
                    bc:ad:f2:e0:f5:a9:90:41:ae:8b:a2:93:f6:16:2f:
                    54:20:75:60:d7:04:2e:55:ce:90:70:8f:59:e9:d3:
                    db:7d
                Exponent: 65537 (0x10001)
        X509v3 extensions:
            X509v3 Basic Constraints: 
                CA:FALSE
            Netscape Comment: 
                OpenSSL Generated Certificate
            X509v3 Subject Key Identifier: 
                43:36:AD:D4:58:0E:0C:0A:77:2A:13:74:E0:C7:40:7E:4B:A7:22:1C
            X509v3 Authority Key Identifier: 
                keyid:5A:B5:A5:79:95:34:08:FB:4C:17:60:D3:92:88:E7:81:76:C6:B4:3D
                DirName:/C=SE/ST=Stockholm/L=Kista/O=RISE/O=Security Lab/OU=5GEnsure
                serial:B2:DC:A2:EA:37:CA:3A:E6

    Signature Algorithm: md5WithRSAEncryption
         92:22:6d:42:11:28:6b:d4:78:cd:8a:cf:0e:a0:be:ff:8a:65:
         f8:35:2f:42:9f:0c:0b:31:a4:3d:0e:68:e6:ce:51:29:88:88:
         03:0e:2a:7b:65:54:ed:37:0e:e3:e4:50:74:65:76:4c:21:2a:
         63:d7:52:6f:42:3b:e9:d9:31:c0:91:5c:ee:34:20:81:a5:07:
         7b:10:4e:e6:f1:4a:6b:66:96:8c:ea:ab:a4:ed:13:09:4c:3f:
         86:e5:9e:d4:01:1e:c4:ac:c4:75:ce:11:91:10:9f:92:c5:82:
         92:be:2d:20:d9:9d:d2:b5:be:41:bd:4a:40:4a:a8:41:7c:74:
         fc:c5
-----BEGIN CERTIFICATE-----
MIIDdTCCAt6gAwIBAgIBPTANBgkqhkiG9w0BAQQFADBqMQswCQYDVQQGEwJTRTES
MBAGA1UECBMJU3RvY2tob2xtMQ4wDAYDVQQHEwVLaXN0YTENMAsGA1UEChMEUklT
RTEVMBMGA1UEChMMU2VjdXJpdHkgTGFiMREwDwYDVQQLEwg1R0Vuc3VyZTAeFw0x
OTA0MDQxNDAzNDFaFw0yMDA0MDMxNDAzNDFaMBYxFDASBgNVBAMTC29wZW52c3dp
dGNoMIIBIjANBgkqhkiG9w0BAQEFAAOCAQ8AMIIBCgKCAQEAug75RD/h24h6skrd
AU0p8wtHNe5C0JhUR2RYjZOgniIihYdfHtWri7gWMn7S7Wd1EzeC0XQ4WuD0w003
GtT/BFQhocUAjC20Q+BFBNV0GB7FCFILqiv0PcJkl0EkED1YRutVimwgho4M11ST
keM7BA8GxiUQDSzFS5jPQ9iZDjlFIHE5RrPqe2+N0k4vPCux2N5u+NGtN5n5Ponb
FRQlBRLXtwGDiRDV3v1qgtUPIR3aQtTsu62UWSA/RFLmY9vxgtMQ0DWxAyOdEu57
YUJiWGwpKSJ0GHUMwTKFhXAqB5C8rfLg9amQQa6LopP2Fi9UIHVg1wQuVc6QcI9Z
6dPbfQIDAQABo4H6MIH3MAkGA1UdEwQCMAAwLAYJYIZIAYb4QgENBB8WHU9wZW5T
U0wgR2VuZXJhdGVkIENlcnRpZmljYXRlMB0GA1UdDgQWBBRDNq3UWA4MCncqE3Tg
x0B+S6ciHDCBnAYDVR0jBIGUMIGRgBRataV5lTQI+0wXYNOSiOeBdsa0PaFupGww
ajELMAkGA1UEBhMCU0UxEjAQBgNVBAgTCVN0b2NraG9sbTEOMAwGA1UEBxMFS2lz
dGExDTALBgNVBAoTBFJJU0UxFTATBgNVBAoTDFNlY3VyaXR5IExhYjERMA8GA1UE
CxMINUdFbnN1cmWCCQCy3KLqN8o65jANBgkqhkiG9w0BAQQFAAOBgQCSIm1CEShr
1HjNis8OoL7/imX4NS9CnwwLMaQ9DmjmzlEpiIgDDip7ZVTtNw7j5FB0ZXZMISpj
11JvQjvp2THAkVzuNCCBpQd7EE7m8UprZpaM6quk7RMJTD+G5Z7UAR7ErMR1zhGR
EJ+SxYKSvi0g2Z3Stb5BvUpASqhBfHT8xQ==
-----END CERTIFICATE-----
