Certificate:
    Data:
        Version: 3 (0x2)
        Serial Number: 67 (0x43)
    Signature Algorithm: md5WithRSAEncryption
        Issuer: C=SE, ST=Stockholm, L=Kista, O=RISE, O=Security Lab, OU=5GEnsure
        Validity
            Not Before: Apr  4 14:05:07 2019 GMT
            Not After : Apr  3 14:05:07 2020 GMT
        Subject: CN=openvswitch
        Subject Public Key Info:
            Public Key Algorithm: rsaEncryption
                Public-Key: (2048 bit)
                Modulus:
                    00:99:81:3d:d6:0f:77:50:7c:af:56:e5:db:05:29:
                    d6:ec:ab:ec:49:6d:81:60:b4:7a:00:f7:44:f7:cb:
                    4a:45:a8:e9:3b:cf:76:66:37:e3:e1:d8:d5:7a:95:
                    70:69:83:a5:07:04:54:20:08:77:db:f9:70:7a:4e:
                    95:5c:6b:58:78:5f:05:4e:c4:37:47:03:90:61:bc:
                    dc:2c:9e:28:6d:c0:0c:82:02:20:49:08:66:a7:85:
                    a9:31:93:c9:6a:e8:cf:df:41:df:7a:ef:01:3a:79:
                    41:4f:f7:53:ff:72:fe:09:0c:89:9a:cf:f5:d6:20:
                    38:ec:8d:42:78:28:0f:a0:e9:6f:c9:9b:3e:39:bc:
                    d0:3c:97:74:ea:cc:6f:b2:33:d7:1d:07:b0:50:42:
                    15:92:76:8b:61:ff:85:80:ff:34:79:6e:c8:c1:d8:
                    7c:47:96:1d:e0:25:3a:1a:e1:10:92:8f:a2:7e:94:
                    cd:5b:a6:db:a8:6a:e5:c2:c5:99:e7:f9:dc:3f:64:
                    1f:04:4c:bc:1b:6e:24:8c:96:d6:83:33:6e:a3:74:
                    47:5d:32:24:bd:7e:6d:36:63:2d:c5:d7:d9:30:36:
                    c4:0c:d5:d7:97:ca:63:08:4d:9e:da:63:89:0a:8d:
                    0b:fb:a4:d2:38:77:30:a1:1c:a4:71:0c:e8:40:4e:
                    09:85
                Exponent: 65537 (0x10001)
        X509v3 extensions:
            X509v3 Basic Constraints: 
                CA:FALSE
            Netscape Comment: 
                OpenSSL Generated Certificate
            X509v3 Subject Key Identifier: 
                83:EF:2B:C7:39:2C:62:35:6A:84:86:A6:62:93:26:EA:0D:D1:DB:58
            X509v3 Authority Key Identifier: 
                keyid:5A:B5:A5:79:95:34:08:FB:4C:17:60:D3:92:88:E7:81:76:C6:B4:3D
                DirName:/C=SE/ST=Stockholm/L=Kista/O=RISE/O=Security Lab/OU=5GEnsure
                serial:B2:DC:A2:EA:37:CA:3A:E6

    Signature Algorithm: md5WithRSAEncryption
         18:08:dd:da:b2:9a:08:dc:7a:c4:f2:fd:5b:bd:44:b9:fd:65:
         1f:3e:c6:fe:86:9e:7b:d8:a0:b4:b7:33:77:62:c5:b6:e3:4c:
         70:bb:7f:9a:7e:aa:cc:10:09:be:ed:8c:60:8d:4f:9f:47:f8:
         6a:f0:ae:3b:7f:d4:80:5f:7c:ce:80:04:db:8f:9c:f8:99:e8:
         ee:25:7e:48:85:d6:1f:cb:59:74:b0:18:d2:c2:f0:bd:9c:9f:
         c7:2c:ca:e0:d6:9d:9d:1d:7c:1b:1a:42:b1:60:c0:64:6e:02:
         0e:a4:81:03:15:92:5c:7d:a1:82:e4:99:ef:89:70:39:b4:f2:
         b4:2b
-----BEGIN CERTIFICATE-----
MIIDdTCCAt6gAwIBAgIBQzANBgkqhkiG9w0BAQQFADBqMQswCQYDVQQGEwJTRTES
MBAGA1UECBMJU3RvY2tob2xtMQ4wDAYDVQQHEwVLaXN0YTENMAsGA1UEChMEUklT
RTEVMBMGA1UEChMMU2VjdXJpdHkgTGFiMREwDwYDVQQLEwg1R0Vuc3VyZTAeFw0x
OTA0MDQxNDA1MDdaFw0yMDA0MDMxNDA1MDdaMBYxFDASBgNVBAMTC29wZW52c3dp
dGNoMIIBIjANBgkqhkiG9w0BAQEFAAOCAQ8AMIIBCgKCAQEAmYE91g93UHyvVuXb
BSnW7KvsSW2BYLR6APdE98tKRajpO892Zjfj4djVepVwaYOlBwRUIAh32/lwek6V
XGtYeF8FTsQ3RwOQYbzcLJ4obcAMggIgSQhmp4WpMZPJaujP30Hfeu8BOnlBT/dT
/3L+CQyJms/11iA47I1CeCgPoOlvyZs+ObzQPJd06sxvsjPXHQewUEIVknaLYf+F
gP80eW7Iwdh8R5Yd4CU6GuEQko+ifpTNW6bbqGrlwsWZ5/ncP2QfBEy8G24kjJbW
gzNuo3RHXTIkvX5tNmMtxdfZMDbEDNXXl8pjCE2e2mOJCo0L+6TSOHcwoRykcQzo
QE4JhQIDAQABo4H6MIH3MAkGA1UdEwQCMAAwLAYJYIZIAYb4QgENBB8WHU9wZW5T
U0wgR2VuZXJhdGVkIENlcnRpZmljYXRlMB0GA1UdDgQWBBSD7yvHOSxiNWqEhqZi
kybqDdHbWDCBnAYDVR0jBIGUMIGRgBRataV5lTQI+0wXYNOSiOeBdsa0PaFupGww
ajELMAkGA1UEBhMCU0UxEjAQBgNVBAgTCVN0b2NraG9sbTEOMAwGA1UEBxMFS2lz
dGExDTALBgNVBAoTBFJJU0UxFTATBgNVBAoTDFNlY3VyaXR5IExhYjERMA8GA1UE
CxMINUdFbnN1cmWCCQCy3KLqN8o65jANBgkqhkiG9w0BAQQFAAOBgQAYCN3aspoI
3HrE8v1bvUS5/WUfPsb+hp572KC0tzN3YsW240xwu3+afqrMEAm+7YxgjU+fR/hq
8K47f9SAX3zOgATbj5z4mejuJX5IhdYfy1l0sBjSwvC9nJ/HLMrg1p2dHXwbGkKx
YMBkbgIOpIEDFZJcfaGC5JnviXA5tPK0Kw==
-----END CERTIFICATE-----
