Certificate:
    Data:
        Version: 3 (0x2)
        Serial Number: 68 (0x44)
    Signature Algorithm: md5WithRSAEncryption
        Issuer: C=SE, ST=Stockholm, L=Kista, O=RISE, O=Security Lab, OU=5GEnsure
        Validity
            Not Before: Apr  4 14:05:16 2019 GMT
            Not After : Apr  3 14:05:16 2020 GMT
        Subject: CN=openvswitch
        Subject Public Key Info:
            Public Key Algorithm: rsaEncryption
                Public-Key: (2048 bit)
                Modulus:
                    00:95:67:fd:16:62:9b:be:52:b8:77:42:79:31:73:
                    ed:65:8c:d6:f3:09:c8:b9:e3:81:fa:ba:c9:b5:df:
                    d9:e1:2f:3c:6f:c1:ae:11:ad:34:b2:00:8e:5b:a2:
                    92:77:7c:01:a3:0c:2c:bc:fd:d3:5e:92:59:9d:b6:
                    9c:ec:8e:cf:42:8d:aa:8d:df:41:4b:76:5b:6c:e2:
                    23:d6:fc:7a:2e:7f:26:6d:9c:c9:49:d2:30:7c:9c:
                    eb:da:b7:84:48:95:bb:ad:db:40:51:de:48:85:7c:
                    b5:c5:05:ff:38:ca:83:2c:d7:d5:5e:3e:25:d3:0a:
                    b5:e1:a9:c3:83:89:84:2f:f9:a1:75:d0:bc:37:01:
                    54:e1:3a:bb:81:31:f6:6c:7d:80:24:e0:64:57:a3:
                    c9:8d:96:eb:91:1e:01:17:71:7a:70:91:92:b6:10:
                    b7:a5:d7:f3:2c:e6:d9:77:61:dc:9b:9b:5d:5b:c4:
                    ea:89:56:28:1b:97:7a:36:66:2a:61:0c:89:62:a2:
                    82:4a:fb:55:f3:a8:9d:1f:56:e9:3b:33:76:9c:93:
                    0c:d5:9d:3e:f6:ac:4f:af:34:02:62:99:23:8e:17:
                    f7:92:fb:f8:c0:f6:1c:19:e9:cf:ce:c8:bb:f7:d5:
                    e6:8e:2c:58:1d:ea:30:f3:54:73:8f:0d:43:b9:f0:
                    c8:5f
                Exponent: 65537 (0x10001)
        X509v3 extensions:
            X509v3 Basic Constraints: 
                CA:FALSE
            Netscape Comment: 
                OpenSSL Generated Certificate
            X509v3 Subject Key Identifier: 
                1B:05:AB:0C:4C:64:B8:F2:D8:12:D1:4A:5E:DB:65:E4:AB:9F:BC:AD
            X509v3 Authority Key Identifier: 
                keyid:5A:B5:A5:79:95:34:08:FB:4C:17:60:D3:92:88:E7:81:76:C6:B4:3D
                DirName:/C=SE/ST=Stockholm/L=Kista/O=RISE/O=Security Lab/OU=5GEnsure
                serial:B2:DC:A2:EA:37:CA:3A:E6

    Signature Algorithm: md5WithRSAEncryption
         8a:24:14:52:74:46:6a:27:ab:33:6c:0d:8a:d4:e0:49:9e:9e:
         67:5c:0f:5e:a4:56:76:3f:61:cf:67:ae:4b:db:39:62:aa:42:
         d0:81:20:ef:4d:6f:a4:42:c2:8b:83:11:3b:6d:ba:a3:1c:ca:
         4d:cb:16:6b:08:2c:8c:9d:90:78:fa:b3:55:2e:f2:7e:a8:2b:
         d8:02:19:67:7b:be:c6:0e:a7:6e:ab:3b:e1:32:68:40:82:86:
         6e:6f:a5:a3:db:36:d1:6a:bd:97:66:67:10:73:91:e6:5f:f6:
         d1:e6:e5:3a:1d:6b:82:26:9b:03:05:e0:f9:0a:5a:96:44:43:
         61:44
-----BEGIN CERTIFICATE-----
MIIDdTCCAt6gAwIBAgIBRDANBgkqhkiG9w0BAQQFADBqMQswCQYDVQQGEwJTRTES
MBAGA1UECBMJU3RvY2tob2xtMQ4wDAYDVQQHEwVLaXN0YTENMAsGA1UEChMEUklT
RTEVMBMGA1UEChMMU2VjdXJpdHkgTGFiMREwDwYDVQQLEwg1R0Vuc3VyZTAeFw0x
OTA0MDQxNDA1MTZaFw0yMDA0MDMxNDA1MTZaMBYxFDASBgNVBAMTC29wZW52c3dp
dGNoMIIBIjANBgkqhkiG9w0BAQEFAAOCAQ8AMIIBCgKCAQEAlWf9FmKbvlK4d0J5
MXPtZYzW8wnIueOB+rrJtd/Z4S88b8GuEa00sgCOW6KSd3wBowwsvP3TXpJZnbac
7I7PQo2qjd9BS3ZbbOIj1vx6Ln8mbZzJSdIwfJzr2reESJW7rdtAUd5IhXy1xQX/
OMqDLNfVXj4l0wq14anDg4mEL/mhddC8NwFU4Tq7gTH2bH2AJOBkV6PJjZbrkR4B
F3F6cJGSthC3pdfzLObZd2Hcm5tdW8TqiVYoG5d6NmYqYQyJYqKCSvtV86idH1bp
OzN2nJMM1Z0+9qxPrzQCYpkjjhf3kvv4wPYcGenPzsi799XmjixYHeow81Rzjw1D
ufDIXwIDAQABo4H6MIH3MAkGA1UdEwQCMAAwLAYJYIZIAYb4QgENBB8WHU9wZW5T
U0wgR2VuZXJhdGVkIENlcnRpZmljYXRlMB0GA1UdDgQWBBQbBasMTGS48tgS0Upe
22Xkq5+8rTCBnAYDVR0jBIGUMIGRgBRataV5lTQI+0wXYNOSiOeBdsa0PaFupGww
ajELMAkGA1UEBhMCU0UxEjAQBgNVBAgTCVN0b2NraG9sbTEOMAwGA1UEBxMFS2lz
dGExDTALBgNVBAoTBFJJU0UxFTATBgNVBAoTDFNlY3VyaXR5IExhYjERMA8GA1UE
CxMINUdFbnN1cmWCCQCy3KLqN8o65jANBgkqhkiG9w0BAQQFAAOBgQCKJBRSdEZq
J6szbA2K1OBJnp5nXA9epFZ2P2HPZ65L2zliqkLQgSDvTW+kQsKLgxE7bbqjHMpN
yxZrCCyMnZB4+rNVLvJ+qCvYAhlne77GDqduqzvhMmhAgoZub6Wj2zbRar2XZmcQ
c5HmX/bR5uU6HWuCJpsDBeD5ClqWRENhRA==
-----END CERTIFICATE-----
