Certificate:
    Data:
        Version: 3 (0x2)
        Serial Number: 75 (0x4b)
    Signature Algorithm: md5WithRSAEncryption
        Issuer: C=SE, ST=Stockholm, L=Kista, O=RISE, O=Security Lab, OU=5GEnsure
        Validity
            Not Before: Apr  4 14:07:32 2019 GMT
            Not After : Apr  3 14:07:32 2020 GMT
        Subject: CN=openvswitch
        Subject Public Key Info:
            Public Key Algorithm: rsaEncryption
                Public-Key: (2048 bit)
                Modulus:
                    00:9e:ae:9a:a1:51:84:e6:86:7d:68:50:f1:b6:d6:
                    39:23:8d:92:d2:47:3d:58:14:ed:9c:19:f4:c9:05:
                    5f:44:91:81:42:30:9f:05:64:85:50:1f:5c:bc:3d:
                    c2:e4:5e:9b:b3:d9:57:3d:22:41:a2:27:6f:82:d1:
                    6b:50:29:0c:16:83:ba:0f:86:87:36:66:83:12:af:
                    03:75:b2:14:28:3c:70:ed:53:c5:ed:75:d1:28:0f:
                    30:86:80:c8:f4:ff:84:e3:aa:9f:e0:a9:1d:13:16:
                    d5:d9:30:1c:32:9b:71:01:29:3c:f1:0e:d9:fa:a1:
                    79:ea:2f:d8:43:37:8d:91:b6:5a:d9:3b:71:07:36:
                    df:b8:3d:2a:20:3d:25:20:21:b6:10:11:4d:a5:5e:
                    65:c4:e5:80:c6:a2:a4:d4:f4:3b:5c:40:43:e4:2f:
                    3f:29:30:42:e5:93:e0:e2:83:8f:74:f5:a5:68:60:
                    de:83:cc:95:c7:11:05:0c:35:7a:8a:fd:d9:3e:8e:
                    76:95:7c:e0:51:47:0a:0f:f2:0a:da:cd:27:29:48:
                    78:fc:82:1a:6b:84:dd:fc:0d:7a:65:de:fb:19:d9:
                    59:6e:4b:af:50:5e:5c:31:57:5e:b7:f8:9b:d6:0e:
                    c0:f1:da:a2:ad:c1:b5:5f:da:47:3d:ef:58:df:02:
                    9d:15
                Exponent: 65537 (0x10001)
        X509v3 extensions:
            X509v3 Basic Constraints: 
                CA:FALSE
            Netscape Comment: 
                OpenSSL Generated Certificate
            X509v3 Subject Key Identifier: 
                E7:B3:D9:47:89:21:F9:F7:4F:D6:B6:DB:AF:2A:E6:C3:74:F4:03:10
            X509v3 Authority Key Identifier: 
                keyid:5A:B5:A5:79:95:34:08:FB:4C:17:60:D3:92:88:E7:81:76:C6:B4:3D
                DirName:/C=SE/ST=Stockholm/L=Kista/O=RISE/O=Security Lab/OU=5GEnsure
                serial:B2:DC:A2:EA:37:CA:3A:E6

    Signature Algorithm: md5WithRSAEncryption
         88:a5:1a:c5:c8:28:d5:98:67:b5:de:b9:11:d2:43:8a:2a:6a:
         20:7e:e0:5a:ed:35:6d:77:1a:f6:f0:88:df:43:56:07:43:a0:
         29:6e:44:99:22:19:11:7d:2e:7a:7f:c4:c1:9a:30:60:14:8f:
         41:1b:ca:3d:c3:3b:27:50:2d:4f:c0:c8:1c:5e:ec:af:e5:05:
         56:1a:b9:f3:d9:b2:30:e1:8d:04:8f:55:1e:81:35:ca:a0:1c:
         14:63:e4:cf:37:8a:43:36:7e:be:5c:78:84:87:50:9b:64:80:
         6e:cd:1a:1f:22:2d:28:2f:b8:8a:8f:63:1b:e6:86:c2:a0:20:
         f7:b9
-----BEGIN CERTIFICATE-----
MIIDdTCCAt6gAwIBAgIBSzANBgkqhkiG9w0BAQQFADBqMQswCQYDVQQGEwJTRTES
MBAGA1UECBMJU3RvY2tob2xtMQ4wDAYDVQQHEwVLaXN0YTENMAsGA1UEChMEUklT
RTEVMBMGA1UEChMMU2VjdXJpdHkgTGFiMREwDwYDVQQLEwg1R0Vuc3VyZTAeFw0x
OTA0MDQxNDA3MzJaFw0yMDA0MDMxNDA3MzJaMBYxFDASBgNVBAMTC29wZW52c3dp
dGNoMIIBIjANBgkqhkiG9w0BAQEFAAOCAQ8AMIIBCgKCAQEAnq6aoVGE5oZ9aFDx
ttY5I42S0kc9WBTtnBn0yQVfRJGBQjCfBWSFUB9cvD3C5F6bs9lXPSJBoidvgtFr
UCkMFoO6D4aHNmaDEq8DdbIUKDxw7VPF7XXRKA8whoDI9P+E46qf4KkdExbV2TAc
MptxASk88Q7Z+qF56i/YQzeNkbZa2TtxBzbfuD0qID0lICG2EBFNpV5lxOWAxqKk
1PQ7XEBD5C8/KTBC5ZPg4oOPdPWlaGDeg8yVxxEFDDV6iv3ZPo52lXzgUUcKD/IK
2s0nKUh4/IIaa4Td/A16Zd77GdlZbkuvUF5cMVdet/ib1g7A8dqircG1X9pHPe9Y
3wKdFQIDAQABo4H6MIH3MAkGA1UdEwQCMAAwLAYJYIZIAYb4QgENBB8WHU9wZW5T
U0wgR2VuZXJhdGVkIENlcnRpZmljYXRlMB0GA1UdDgQWBBTns9lHiSH590/Wttuv
KubDdPQDEDCBnAYDVR0jBIGUMIGRgBRataV5lTQI+0wXYNOSiOeBdsa0PaFupGww
ajELMAkGA1UEBhMCU0UxEjAQBgNVBAgTCVN0b2NraG9sbTEOMAwGA1UEBxMFS2lz
dGExDTALBgNVBAoTBFJJU0UxFTATBgNVBAoTDFNlY3VyaXR5IExhYjERMA8GA1UE
CxMINUdFbnN1cmWCCQCy3KLqN8o65jANBgkqhkiG9w0BAQQFAAOBgQCIpRrFyCjV
mGe13rkR0kOKKmogfuBa7TVtdxr28IjfQ1YHQ6ApbkSZIhkRfS56f8TBmjBgFI9B
G8o9wzsnUC1PwMgcXuyv5QVWGrnz2bIw4Y0Ej1UegTXKoBwUY+TPN4pDNn6+XHiE
h1CbZIBuzRofIi0oL7iKj2Mb5obCoCD3uQ==
-----END CERTIFICATE-----
