Certificate:
    Data:
        Version: 3 (0x2)
        Serial Number: 78 (0x4e)
    Signature Algorithm: md5WithRSAEncryption
        Issuer: C=SE, ST=Stockholm, L=Kista, O=RISE, O=Security Lab, OU=5GEnsure
        Validity
            Not Before: Apr  4 14:09:20 2019 GMT
            Not After : Apr  3 14:09:20 2020 GMT
        Subject: CN=openvswitch
        Subject Public Key Info:
            Public Key Algorithm: rsaEncryption
                Public-Key: (2048 bit)
                Modulus:
                    00:95:1b:f4:ed:0c:ff:85:81:fb:6e:62:21:eb:99:
                    aa:04:d7:19:8c:e6:e6:bb:3b:d8:27:49:97:89:3e:
                    c1:3b:25:60:1d:a1:59:3c:6c:8b:fe:5b:cd:6f:cf:
                    6c:46:c4:08:15:eb:e9:36:3f:a9:b9:cc:e5:74:0d:
                    58:ab:2b:78:a2:f7:e6:8e:2e:a7:33:18:e0:ab:09:
                    b0:cc:61:2d:db:75:27:22:ae:2f:a2:fb:d9:0e:2f:
                    d0:97:c5:7e:0e:ab:75:2a:85:75:aa:31:07:4a:ba:
                    96:a3:d3:06:31:c0:45:c8:df:0a:95:21:44:c0:7d:
                    17:e1:97:9c:2d:41:1a:7a:da:0a:73:b4:c5:27:d9:
                    e2:23:5d:03:a8:d8:b9:f1:7f:8d:e7:36:8c:88:47:
                    62:61:1e:95:7f:97:1e:18:df:48:09:b5:df:31:b1:
                    4b:c4:be:9d:35:55:f1:18:f9:62:60:d3:cc:6e:9a:
                    37:80:6c:3b:c4:b9:aa:df:f7:8e:61:3a:8f:b6:49:
                    f5:f4:8a:4e:27:31:d6:7b:5b:40:98:e4:52:7e:2a:
                    c0:a0:5e:0c:97:05:2b:76:d2:42:ae:9e:f6:ea:99:
                    b5:cc:a9:32:52:4d:d3:eb:a8:1c:22:a1:75:1e:93:
                    e5:86:60:0e:94:d2:fd:16:ed:02:23:a1:70:3b:68:
                    28:31
                Exponent: 65537 (0x10001)
        X509v3 extensions:
            X509v3 Basic Constraints: 
                CA:FALSE
            Netscape Comment: 
                OpenSSL Generated Certificate
            X509v3 Subject Key Identifier: 
                94:C4:60:73:38:D6:69:8C:9D:1A:31:9F:B5:28:74:B0:7D:F6:04:41
            X509v3 Authority Key Identifier: 
                keyid:5A:B5:A5:79:95:34:08:FB:4C:17:60:D3:92:88:E7:81:76:C6:B4:3D
                DirName:/C=SE/ST=Stockholm/L=Kista/O=RISE/O=Security Lab/OU=5GEnsure
                serial:B2:DC:A2:EA:37:CA:3A:E6

    Signature Algorithm: md5WithRSAEncryption
         53:93:7e:0b:59:a3:0d:dc:90:3a:41:5e:e7:9a:cc:d7:15:60:
         88:f4:54:fa:e1:1e:31:be:f2:8e:68:2f:5d:01:fb:bd:2c:62:
         e4:96:ce:16:7b:ac:67:0e:08:fd:90:4d:a7:87:0a:06:7c:43:
         ca:a9:71:73:8d:f9:53:41:5b:f1:e7:fb:c2:86:81:3a:65:80:
         04:de:51:8c:77:52:16:d2:6f:41:1d:eb:31:77:19:82:74:1b:
         12:97:f4:ce:8e:98:5c:9f:79:6d:1d:ee:ad:43:c1:55:66:f5:
         78:1b:08:96:31:31:79:0d:b1:4a:57:02:bf:21:29:a9:44:0f:
         c1:58
-----BEGIN CERTIFICATE-----
MIIDdTCCAt6gAwIBAgIBTjANBgkqhkiG9w0BAQQFADBqMQswCQYDVQQGEwJTRTES
MBAGA1UECBMJU3RvY2tob2xtMQ4wDAYDVQQHEwVLaXN0YTENMAsGA1UEChMEUklT
RTEVMBMGA1UEChMMU2VjdXJpdHkgTGFiMREwDwYDVQQLEwg1R0Vuc3VyZTAeFw0x
OTA0MDQxNDA5MjBaFw0yMDA0MDMxNDA5MjBaMBYxFDASBgNVBAMTC29wZW52c3dp
dGNoMIIBIjANBgkqhkiG9w0BAQEFAAOCAQ8AMIIBCgKCAQEAlRv07Qz/hYH7bmIh
65mqBNcZjObmuzvYJ0mXiT7BOyVgHaFZPGyL/lvNb89sRsQIFevpNj+puczldA1Y
qyt4ovfmji6nMxjgqwmwzGEt23UnIq4vovvZDi/Ql8V+Dqt1KoV1qjEHSrqWo9MG
McBFyN8KlSFEwH0X4ZecLUEaetoKc7TFJ9niI10DqNi58X+N5zaMiEdiYR6Vf5ce
GN9ICbXfMbFLxL6dNVXxGPliYNPMbpo3gGw7xLmq3/eOYTqPtkn19IpOJzHWe1tA
mORSfirAoF4MlwUrdtJCrp726pm1zKkyUk3T66gcIqF1HpPlhmAOlNL9Fu0CI6Fw
O2goMQIDAQABo4H6MIH3MAkGA1UdEwQCMAAwLAYJYIZIAYb4QgENBB8WHU9wZW5T
U0wgR2VuZXJhdGVkIENlcnRpZmljYXRlMB0GA1UdDgQWBBSUxGBzONZpjJ0aMZ+1
KHSwffYEQTCBnAYDVR0jBIGUMIGRgBRataV5lTQI+0wXYNOSiOeBdsa0PaFupGww
ajELMAkGA1UEBhMCU0UxEjAQBgNVBAgTCVN0b2NraG9sbTEOMAwGA1UEBxMFS2lz
dGExDTALBgNVBAoTBFJJU0UxFTATBgNVBAoTDFNlY3VyaXR5IExhYjERMA8GA1UE
CxMINUdFbnN1cmWCCQCy3KLqN8o65jANBgkqhkiG9w0BAQQFAAOBgQBTk34LWaMN
3JA6QV7nmszXFWCI9FT64R4xvvKOaC9dAfu9LGLkls4We6xnDgj9kE2nhwoGfEPK
qXFzjflTQVvx5/vChoE6ZYAE3lGMd1IW0m9BHesxdxmCdBsSl/TOjphcn3ltHe6t
Q8FVZvV4GwiWMTF5DbFKVwK/ISmpRA/BWA==
-----END CERTIFICATE-----
