Certificate:
    Data:
        Version: 3 (0x2)
        Serial Number: 80 (0x50)
    Signature Algorithm: md5WithRSAEncryption
        Issuer: C=SE, ST=Stockholm, L=Kista, O=RISE, O=Security Lab, OU=5GEnsure
        Validity
            Not Before: Apr  4 14:09:46 2019 GMT
            Not After : Apr  3 14:09:46 2020 GMT
        Subject: CN=openvswitch
        Subject Public Key Info:
            Public Key Algorithm: rsaEncryption
                Public-Key: (2048 bit)
                Modulus:
                    00:cb:7f:b3:ec:17:5f:50:11:f9:15:28:41:11:b7:
                    8b:c2:bc:b2:f8:6f:b8:5b:15:75:82:d7:ce:92:d9:
                    ea:47:ea:fe:37:c8:79:4f:58:74:80:95:b8:df:14:
                    23:45:fd:ab:88:18:3f:51:14:f7:f2:f5:54:d8:90:
                    d6:66:6c:00:3f:fa:f2:09:9c:b4:0e:d4:63:27:10:
                    bf:35:50:2d:69:da:2c:48:4e:84:c6:b4:35:71:84:
                    78:5b:6c:85:c8:17:27:b1:ac:ed:00:00:62:2e:06:
                    51:3b:14:3b:9a:9e:83:20:e7:51:b8:f8:6d:cc:fd:
                    f3:ab:e9:69:1b:d7:a0:d8:bb:58:d1:d9:3b:a4:aa:
                    5f:58:11:f6:94:27:25:f3:04:2d:dc:9e:14:f4:c8:
                    3a:ba:32:ad:eb:24:d2:45:6a:9d:cf:63:fd:f6:d1:
                    f4:58:4a:81:29:8a:c1:fd:cf:86:b6:fa:5d:ee:ee:
                    35:ff:1e:f0:c3:d7:57:e3:58:d2:57:8c:9c:49:46:
                    57:01:ef:06:68:ba:b7:7a:21:37:fe:a2:2c:9c:10:
                    59:52:9e:c2:26:af:75:d5:8c:ff:80:78:6d:a7:a8:
                    78:73:5f:a1:b8:7f:94:9a:e4:0b:22:dd:ba:32:c4:
                    7b:91:f2:9f:26:7f:5c:08:61:00:d4:c0:3e:d1:6f:
                    e4:ff
                Exponent: 65537 (0x10001)
        X509v3 extensions:
            X509v3 Basic Constraints: 
                CA:FALSE
            Netscape Comment: 
                OpenSSL Generated Certificate
            X509v3 Subject Key Identifier: 
                A0:9C:07:22:48:64:65:EA:E4:25:A7:8F:3A:E8:DF:18:D7:E5:3A:22
            X509v3 Authority Key Identifier: 
                keyid:5A:B5:A5:79:95:34:08:FB:4C:17:60:D3:92:88:E7:81:76:C6:B4:3D
                DirName:/C=SE/ST=Stockholm/L=Kista/O=RISE/O=Security Lab/OU=5GEnsure
                serial:B2:DC:A2:EA:37:CA:3A:E6

    Signature Algorithm: md5WithRSAEncryption
         c2:03:fa:50:52:67:4e:a4:92:39:3d:c3:74:5f:53:e8:72:5d:
         77:14:10:9f:ab:db:df:f2:c5:bc:53:5c:ed:ca:95:35:63:2c:
         71:d2:fa:59:43:ca:86:bd:c8:a3:d7:96:cb:f4:5a:07:f2:c4:
         67:45:fb:8f:bb:a7:c1:ea:b4:da:1c:f5:56:88:0f:f2:9e:c6:
         32:db:b7:d7:e0:fd:0b:fe:1d:ed:32:7f:5c:52:cc:0c:7b:9f:
         63:5e:87:96:65:39:da:10:f5:f0:8c:1b:49:16:ec:c6:36:94:
         2b:b4:63:85:37:ae:83:03:6d:82:87:80:fd:03:2f:7b:84:1d:
         a9:63
-----BEGIN CERTIFICATE-----
MIIDdTCCAt6gAwIBAgIBUDANBgkqhkiG9w0BAQQFADBqMQswCQYDVQQGEwJTRTES
MBAGA1UECBMJU3RvY2tob2xtMQ4wDAYDVQQHEwVLaXN0YTENMAsGA1UEChMEUklT
RTEVMBMGA1UEChMMU2VjdXJpdHkgTGFiMREwDwYDVQQLEwg1R0Vuc3VyZTAeFw0x
OTA0MDQxNDA5NDZaFw0yMDA0MDMxNDA5NDZaMBYxFDASBgNVBAMTC29wZW52c3dp
dGNoMIIBIjANBgkqhkiG9w0BAQEFAAOCAQ8AMIIBCgKCAQEAy3+z7BdfUBH5FShB
EbeLwryy+G+4WxV1gtfOktnqR+r+N8h5T1h0gJW43xQjRf2riBg/URT38vVU2JDW
ZmwAP/ryCZy0DtRjJxC/NVAtadosSE6ExrQ1cYR4W2yFyBcnsaztAABiLgZROxQ7
mp6DIOdRuPhtzP3zq+lpG9eg2LtY0dk7pKpfWBH2lCcl8wQt3J4U9Mg6ujKt6yTS
RWqdz2P99tH0WEqBKYrB/c+Gtvpd7u41/x7ww9dX41jSV4ycSUZXAe8GaLq3eiE3
/qIsnBBZUp7CJq911Yz/gHhtp6h4c1+huH+UmuQLIt26MsR7kfKfJn9cCGEA1MA+
0W/k/wIDAQABo4H6MIH3MAkGA1UdEwQCMAAwLAYJYIZIAYb4QgENBB8WHU9wZW5T
U0wgR2VuZXJhdGVkIENlcnRpZmljYXRlMB0GA1UdDgQWBBSgnAciSGRl6uQlp486
6N8Y1+U6IjCBnAYDVR0jBIGUMIGRgBRataV5lTQI+0wXYNOSiOeBdsa0PaFupGww
ajELMAkGA1UEBhMCU0UxEjAQBgNVBAgTCVN0b2NraG9sbTEOMAwGA1UEBxMFS2lz
dGExDTALBgNVBAoTBFJJU0UxFTATBgNVBAoTDFNlY3VyaXR5IExhYjERMA8GA1UE
CxMINUdFbnN1cmWCCQCy3KLqN8o65jANBgkqhkiG9w0BAQQFAAOBgQDCA/pQUmdO
pJI5PcN0X1Pocl13FBCfq9vf8sW8U1ztypU1Yyxx0vpZQ8qGvcij15bL9FoH8sRn
RfuPu6fB6rTaHPVWiA/ynsYy27fX4P0L/h3tMn9cUswMe59jXoeWZTnaEPXwjBtJ
FuzGNpQrtGOFN66DA22Ch4D9Ay97hB2pYw==
-----END CERTIFICATE-----
