Certificate:
    Data:
        Version: 3 (0x2)
        Serial Number: 83 (0x53)
    Signature Algorithm: md5WithRSAEncryption
        Issuer: C=SE, ST=Stockholm, L=Kista, O=RISE, O=Security Lab, OU=5GEnsure
        Validity
            Not Before: Apr  4 14:09:52 2019 GMT
            Not After : Apr  3 14:09:52 2020 GMT
        Subject: CN=openvswitch
        Subject Public Key Info:
            Public Key Algorithm: rsaEncryption
                Public-Key: (2048 bit)
                Modulus:
                    00:cb:7f:b3:ec:17:5f:50:11:f9:15:28:41:11:b7:
                    8b:c2:bc:b2:f8:6f:b8:5b:15:75:82:d7:ce:92:d9:
                    ea:47:ea:fe:37:c8:79:4f:58:74:80:95:b8:df:14:
                    23:45:fd:ab:88:18:3f:51:14:f7:f2:f5:54:d8:90:
                    d6:66:6c:00:3f:fa:f2:09:9c:b4:0e:d4:63:27:10:
                    bf:35:50:2d:69:da:2c:48:4e:84:c6:b4:35:71:84:
                    78:5b:6c:85:c8:17:27:b1:ac:ed:00:00:62:2e:06:
                    51:3b:14:3b:9a:9e:83:20:e7:51:b8:f8:6d:cc:fd:
                    f3:ab:e9:69:1b:d7:a0:d8:bb:58:d1:d9:3b:a4:aa:
                    5f:58:11:f6:94:27:25:f3:04:2d:dc:9e:14:f4:c8:
                    3a:ba:32:ad:eb:24:d2:45:6a:9d:cf:63:fd:f6:d1:
                    f4:58:4a:81:29:8a:c1:fd:cf:86:b6:fa:5d:ee:ee:
                    35:ff:1e:f0:c3:d7:57:e3:58:d2:57:8c:9c:49:46:
                    57:01:ef:06:68:ba:b7:7a:21:37:fe:a2:2c:9c:10:
                    59:52:9e:c2:26:af:75:d5:8c:ff:80:78:6d:a7:a8:
                    78:73:5f:a1:b8:7f:94:9a:e4:0b:22:dd:ba:32:c4:
                    7b:91:f2:9f:26:7f:5c:08:61:00:d4:c0:3e:d1:6f:
                    e4:ff
                Exponent: 65537 (0x10001)
        X509v3 extensions:
            X509v3 Basic Constraints: 
                CA:FALSE
            Netscape Comment: 
                OpenSSL Generated Certificate
            X509v3 Subject Key Identifier: 
                A0:9C:07:22:48:64:65:EA:E4:25:A7:8F:3A:E8:DF:18:D7:E5:3A:22
            X509v3 Authority Key Identifier: 
                keyid:5A:B5:A5:79:95:34:08:FB:4C:17:60:D3:92:88:E7:81:76:C6:B4:3D
                DirName:/C=SE/ST=Stockholm/L=Kista/O=RISE/O=Security Lab/OU=5GEnsure
                serial:B2:DC:A2:EA:37:CA:3A:E6

    Signature Algorithm: md5WithRSAEncryption
         22:67:d4:bf:9b:23:e1:2b:cf:08:e4:da:a3:be:32:9a:95:7c:
         b4:c8:b0:47:b7:eb:ff:c2:24:6f:e5:b5:34:86:8b:66:40:0c:
         77:c8:e4:3c:60:d3:ac:6b:c2:07:17:1f:6c:d8:4f:41:63:e2:
         4e:90:0a:3c:de:10:af:ea:e0:15:9c:b8:8d:0c:56:e7:63:14:
         b4:49:ad:62:38:d3:8c:80:cb:d5:1a:30:29:2e:81:6e:b4:f2:
         01:c9:60:19:81:64:d7:5d:3a:36:8d:36:bd:b7:ba:af:fd:bc:
         3a:69:b2:aa:da:28:08:41:77:7c:ea:af:a1:4d:1c:da:c5:8f:
         71:69
-----BEGIN CERTIFICATE-----
MIIDdTCCAt6gAwIBAgIBUzANBgkqhkiG9w0BAQQFADBqMQswCQYDVQQGEwJTRTES
MBAGA1UECBMJU3RvY2tob2xtMQ4wDAYDVQQHEwVLaXN0YTENMAsGA1UEChMEUklT
RTEVMBMGA1UEChMMU2VjdXJpdHkgTGFiMREwDwYDVQQLEwg1R0Vuc3VyZTAeFw0x
OTA0MDQxNDA5NTJaFw0yMDA0MDMxNDA5NTJaMBYxFDASBgNVBAMTC29wZW52c3dp
dGNoMIIBIjANBgkqhkiG9w0BAQEFAAOCAQ8AMIIBCgKCAQEAy3+z7BdfUBH5FShB
EbeLwryy+G+4WxV1gtfOktnqR+r+N8h5T1h0gJW43xQjRf2riBg/URT38vVU2JDW
ZmwAP/ryCZy0DtRjJxC/NVAtadosSE6ExrQ1cYR4W2yFyBcnsaztAABiLgZROxQ7
mp6DIOdRuPhtzP3zq+lpG9eg2LtY0dk7pKpfWBH2lCcl8wQt3J4U9Mg6ujKt6yTS
RWqdz2P99tH0WEqBKYrB/c+Gtvpd7u41/x7ww9dX41jSV4ycSUZXAe8GaLq3eiE3
/qIsnBBZUp7CJq911Yz/gHhtp6h4c1+huH+UmuQLIt26MsR7kfKfJn9cCGEA1MA+
0W/k/wIDAQABo4H6MIH3MAkGA1UdEwQCMAAwLAYJYIZIAYb4QgENBB8WHU9wZW5T
U0wgR2VuZXJhdGVkIENlcnRpZmljYXRlMB0GA1UdDgQWBBSgnAciSGRl6uQlp486
6N8Y1+U6IjCBnAYDVR0jBIGUMIGRgBRataV5lTQI+0wXYNOSiOeBdsa0PaFupGww
ajELMAkGA1UEBhMCU0UxEjAQBgNVBAgTCVN0b2NraG9sbTEOMAwGA1UEBxMFS2lz
dGExDTALBgNVBAoTBFJJU0UxFTATBgNVBAoTDFNlY3VyaXR5IExhYjERMA8GA1UE
CxMINUdFbnN1cmWCCQCy3KLqN8o65jANBgkqhkiG9w0BAQQFAAOBgQAiZ9S/myPh
K88I5NqjvjKalXy0yLBHt+v/wiRv5bU0hotmQAx3yOQ8YNOsa8IHFx9s2E9BY+JO
kAo83hCv6uAVnLiNDFbnYxS0Sa1iONOMgMvVGjApLoFutPIByWAZgWTXXTo2jTa9
t7qv/bw6abKq2igIQXd86q+hTRzaxY9xaQ==
-----END CERTIFICATE-----
