Certificate:
    Data:
        Version: 3 (0x2)
        Serial Number: 86 (0x56)
    Signature Algorithm: md5WithRSAEncryption
        Issuer: C=SE, ST=Stockholm, L=Kista, O=RISE, O=Security Lab, OU=5GEnsure
        Validity
            Not Before: Apr  4 14:11:01 2019 GMT
            Not After : Apr  3 14:11:01 2020 GMT
        Subject: CN=openvswitch
        Subject Public Key Info:
            Public Key Algorithm: rsaEncryption
                Public-Key: (2048 bit)
                Modulus:
                    00:c3:5f:d2:bc:ae:f4:85:c5:78:e9:e3:d2:6d:39:
                    24:83:4d:4e:ac:46:6f:2b:c5:b8:7a:44:d2:b4:09:
                    53:fb:b0:6f:6a:14:4d:cb:49:1a:32:88:23:f3:76:
                    af:df:5e:d6:f5:a0:31:74:0e:21:3e:c9:8b:a9:9f:
                    43:f1:f9:c4:98:0b:8c:63:28:ec:f1:65:14:52:bf:
                    d1:ee:10:87:fc:45:c1:0b:44:f8:47:36:1d:dc:b3:
                    d7:97:5c:70:e9:1e:2e:d6:f0:eb:86:e7:23:bc:39:
                    0a:ec:f0:70:fe:79:03:55:5b:56:ac:e9:be:19:28:
                    e4:21:e5:e2:1a:5b:ed:22:9a:29:6e:29:76:b8:89:
                    85:16:e1:c9:46:ae:97:00:27:ba:c3:ab:00:03:89:
                    bd:93:2d:90:9e:16:08:57:8d:2f:d2:8d:63:65:9e:
                    f3:59:02:a1:77:11:48:07:b5:f3:38:ad:15:d6:77:
                    e7:5b:8d:9b:ea:5c:d2:46:2e:72:4f:f5:f2:ed:6b:
                    1c:0a:ae:5f:be:b7:76:3a:13:09:30:6d:56:a5:f6:
                    46:b9:0f:e8:9d:38:56:d1:8e:55:ec:1b:21:ae:79:
                    79:c0:69:d2:fb:c7:03:2c:c8:e4:08:c9:dd:cc:49:
                    fd:8a:bd:59:d3:ba:a4:c3:58:b9:35:ca:a9:f8:b3:
                    41:d1
                Exponent: 65537 (0x10001)
        X509v3 extensions:
            X509v3 Basic Constraints: 
                CA:FALSE
            Netscape Comment: 
                OpenSSL Generated Certificate
            X509v3 Subject Key Identifier: 
                19:C9:72:19:56:23:07:06:FA:39:DE:67:F8:13:0B:EC:11:B0:7C:32
            X509v3 Authority Key Identifier: 
                keyid:5A:B5:A5:79:95:34:08:FB:4C:17:60:D3:92:88:E7:81:76:C6:B4:3D
                DirName:/C=SE/ST=Stockholm/L=Kista/O=RISE/O=Security Lab/OU=5GEnsure
                serial:B2:DC:A2:EA:37:CA:3A:E6

    Signature Algorithm: md5WithRSAEncryption
         54:34:56:4f:ec:c7:40:79:2e:0d:8d:11:fc:c9:d9:2c:1e:6c:
         04:d7:a6:41:88:27:56:d3:90:a7:4b:b3:b3:2f:7b:da:f9:96:
         da:c0:25:1c:ba:d6:74:87:a7:1e:d7:fd:e6:3f:43:b2:2a:67:
         45:96:fb:26:e1:04:d8:72:53:1a:01:6a:8f:0a:4d:20:d8:5f:
         3e:15:0e:4e:07:f5:6c:7b:b2:7b:55:ce:80:5d:ba:98:75:4c:
         88:4f:d6:c6:b8:fd:d0:91:12:c0:6d:02:57:5f:60:87:da:ab:
         fa:d5:48:46:8d:3c:6a:6c:d2:d1:fa:2c:76:13:10:cb:c2:58:
         d5:0b
-----BEGIN CERTIFICATE-----
MIIDdTCCAt6gAwIBAgIBVjANBgkqhkiG9w0BAQQFADBqMQswCQYDVQQGEwJTRTES
MBAGA1UECBMJU3RvY2tob2xtMQ4wDAYDVQQHEwVLaXN0YTENMAsGA1UEChMEUklT
RTEVMBMGA1UEChMMU2VjdXJpdHkgTGFiMREwDwYDVQQLEwg1R0Vuc3VyZTAeFw0x
OTA0MDQxNDExMDFaFw0yMDA0MDMxNDExMDFaMBYxFDASBgNVBAMTC29wZW52c3dp
dGNoMIIBIjANBgkqhkiG9w0BAQEFAAOCAQ8AMIIBCgKCAQEAw1/SvK70hcV46ePS
bTkkg01OrEZvK8W4ekTStAlT+7BvahRNy0kaMogj83av317W9aAxdA4hPsmLqZ9D
8fnEmAuMYyjs8WUUUr/R7hCH/EXBC0T4RzYd3LPXl1xw6R4u1vDrhucjvDkK7PBw
/nkDVVtWrOm+GSjkIeXiGlvtIpopbil2uImFFuHJRq6XACe6w6sAA4m9ky2QnhYI
V40v0o1jZZ7zWQKhdxFIB7XzOK0V1nfnW42b6lzSRi5yT/Xy7WscCq5fvrd2OhMJ
MG1WpfZGuQ/onThW0Y5V7Bshrnl5wGnS+8cDLMjkCMndzEn9ir1Z07qkw1i5Ncqp
+LNB0QIDAQABo4H6MIH3MAkGA1UdEwQCMAAwLAYJYIZIAYb4QgENBB8WHU9wZW5T
U0wgR2VuZXJhdGVkIENlcnRpZmljYXRlMB0GA1UdDgQWBBQZyXIZViMHBvo53mf4
EwvsEbB8MjCBnAYDVR0jBIGUMIGRgBRataV5lTQI+0wXYNOSiOeBdsa0PaFupGww
ajELMAkGA1UEBhMCU0UxEjAQBgNVBAgTCVN0b2NraG9sbTEOMAwGA1UEBxMFS2lz
dGExDTALBgNVBAoTBFJJU0UxFTATBgNVBAoTDFNlY3VyaXR5IExhYjERMA8GA1UE
CxMINUdFbnN1cmWCCQCy3KLqN8o65jANBgkqhkiG9w0BAQQFAAOBgQBUNFZP7MdA
eS4NjRH8ydksHmwE16ZBiCdW05CnS7OzL3va+ZbawCUcutZ0h6ce1/3mP0OyKmdF
lvsm4QTYclMaAWqPCk0g2F8+FQ5OB/Vse7J7Vc6AXbqYdUyIT9bGuP3QkRLAbQJX
X2CH2qv61UhGjTxqbNLR+ix2ExDLwljVCw==
-----END CERTIFICATE-----
