Certificate:
    Data:
        Version: 3 (0x2)
        Serial Number: 87 (0x57)
    Signature Algorithm: md5WithRSAEncryption
        Issuer: C=SE, ST=Stockholm, L=Kista, O=RISE, O=Security Lab, OU=5GEnsure
        Validity
            Not Before: Apr  4 14:12:08 2019 GMT
            Not After : Apr  3 14:12:08 2020 GMT
        Subject: CN=openvswitch
        Subject Public Key Info:
            Public Key Algorithm: rsaEncryption
                Public-Key: (2048 bit)
                Modulus:
                    00:b1:4f:89:3e:d4:24:8c:57:6b:6f:cf:62:02:f6:
                    7a:5d:8a:10:60:87:c2:4a:2b:23:c4:c1:6b:ae:91:
                    57:9f:39:86:35:07:ba:f5:63:af:b8:2a:4f:2d:32:
                    cd:62:83:03:12:4d:aa:d4:23:eb:41:b4:48:69:2d:
                    2b:81:35:5b:cd:76:74:2d:f9:40:fa:a6:ea:eb:78:
                    4d:62:10:eb:79:d9:54:5d:c8:85:e9:78:08:34:4a:
                    cf:6f:43:55:62:5d:a5:a5:d6:a4:d8:f6:e4:8e:d8:
                    44:f4:78:87:86:6b:65:5a:eb:26:e5:85:73:17:fe:
                    9c:de:6f:93:35:08:2f:cb:5e:d6:b2:64:b3:f7:14:
                    db:2f:0b:45:50:22:15:79:5f:b1:9c:06:dd:43:76:
                    82:f7:1b:a4:e1:0c:90:6c:a6:87:69:d0:f9:11:ee:
                    b1:65:73:26:ce:a5:d0:86:d4:c6:99:a0:94:b0:45:
                    49:34:b1:62:10:b3:c7:5f:d5:85:f1:32:69:7e:c4:
                    af:1e:f0:d0:eb:5b:3b:04:10:53:76:3d:5b:bb:93:
                    5b:09:38:31:ae:51:5c:98:ad:d4:55:19:b8:d0:77:
                    11:1a:db:e9:92:2f:b0:d1:3d:42:0e:21:51:2c:57:
                    17:ab:a7:53:9d:85:93:77:c5:b4:6e:4b:e4:92:fc:
                    4b:99
                Exponent: 65537 (0x10001)
        X509v3 extensions:
            X509v3 Basic Constraints: 
                CA:FALSE
            Netscape Comment: 
                OpenSSL Generated Certificate
            X509v3 Subject Key Identifier: 
                96:F5:68:09:6E:3C:D3:16:D4:8F:B8:E8:8C:7A:6A:09:47:15:AC:F4
            X509v3 Authority Key Identifier: 
                keyid:5A:B5:A5:79:95:34:08:FB:4C:17:60:D3:92:88:E7:81:76:C6:B4:3D
                DirName:/C=SE/ST=Stockholm/L=Kista/O=RISE/O=Security Lab/OU=5GEnsure
                serial:B2:DC:A2:EA:37:CA:3A:E6

    Signature Algorithm: md5WithRSAEncryption
         5f:69:e7:b1:47:ba:21:64:32:5b:e2:4f:30:43:9d:6b:53:5d:
         9f:dd:a9:4d:5c:32:5f:f8:d6:89:4e:d9:48:e7:6f:5e:52:21:
         ee:90:96:96:08:a7:83:b2:69:19:f4:f2:21:82:cd:09:8f:c4:
         fe:e6:9d:fc:7b:22:19:61:f0:dd:16:43:2c:74:d6:32:fc:72:
         d2:a7:29:80:48:4e:ef:62:86:c9:87:3c:60:c3:c3:94:27:49:
         b1:91:9c:3e:0f:cd:69:58:42:6c:52:13:4d:3b:c2:14:4b:1b:
         7d:14:34:87:65:1e:8b:00:08:a4:1f:01:0d:b5:f8:30:56:b2:
         ec:15
-----BEGIN CERTIFICATE-----
MIIDdTCCAt6gAwIBAgIBVzANBgkqhkiG9w0BAQQFADBqMQswCQYDVQQGEwJTRTES
MBAGA1UECBMJU3RvY2tob2xtMQ4wDAYDVQQHEwVLaXN0YTENMAsGA1UEChMEUklT
RTEVMBMGA1UEChMMU2VjdXJpdHkgTGFiMREwDwYDVQQLEwg1R0Vuc3VyZTAeFw0x
OTA0MDQxNDEyMDhaFw0yMDA0MDMxNDEyMDhaMBYxFDASBgNVBAMTC29wZW52c3dp
dGNoMIIBIjANBgkqhkiG9w0BAQEFAAOCAQ8AMIIBCgKCAQEAsU+JPtQkjFdrb89i
AvZ6XYoQYIfCSisjxMFrrpFXnzmGNQe69WOvuCpPLTLNYoMDEk2q1CPrQbRIaS0r
gTVbzXZ0LflA+qbq63hNYhDredlUXciF6XgINErPb0NVYl2lpdak2PbkjthE9HiH
hmtlWusm5YVzF/6c3m+TNQgvy17WsmSz9xTbLwtFUCIVeV+xnAbdQ3aC9xuk4QyQ
bKaHadD5Ee6xZXMmzqXQhtTGmaCUsEVJNLFiELPHX9WF8TJpfsSvHvDQ61s7BBBT
dj1bu5NbCTgxrlFcmK3UVRm40HcRGtvpki+w0T1CDiFRLFcXq6dTnYWTd8W0bkvk
kvxLmQIDAQABo4H6MIH3MAkGA1UdEwQCMAAwLAYJYIZIAYb4QgENBB8WHU9wZW5T
U0wgR2VuZXJhdGVkIENlcnRpZmljYXRlMB0GA1UdDgQWBBSW9WgJbjzTFtSPuOiM
emoJRxWs9DCBnAYDVR0jBIGUMIGRgBRataV5lTQI+0wXYNOSiOeBdsa0PaFupGww
ajELMAkGA1UEBhMCU0UxEjAQBgNVBAgTCVN0b2NraG9sbTEOMAwGA1UEBxMFS2lz
dGExDTALBgNVBAoTBFJJU0UxFTATBgNVBAoTDFNlY3VyaXR5IExhYjERMA8GA1UE
CxMINUdFbnN1cmWCCQCy3KLqN8o65jANBgkqhkiG9w0BAQQFAAOBgQBfaeexR7oh
ZDJb4k8wQ51rU12f3alNXDJf+NaJTtlI529eUiHukJaWCKeDsmkZ9PIhgs0Jj8T+
5p38eyIZYfDdFkMsdNYy/HLSpymASE7vYobJhzxgw8OUJ0mxkZw+D81pWEJsUhNN
O8IUSxt9FDSHZR6LAAikHwENtfgwVrLsFQ==
-----END CERTIFICATE-----
