Certificate:
    Data:
        Version: 3 (0x2)
        Serial Number: 88 (0x58)
    Signature Algorithm: md5WithRSAEncryption
        Issuer: C=SE, ST=Stockholm, L=Kista, O=RISE, O=Security Lab, OU=5GEnsure
        Validity
            Not Before: Apr  4 14:17:52 2019 GMT
            Not After : Apr  3 14:17:52 2020 GMT
        Subject: CN=openvswitch
        Subject Public Key Info:
            Public Key Algorithm: rsaEncryption
                Public-Key: (2048 bit)
                Modulus:
                    00:d0:e9:23:2c:b4:7c:9f:a9:cb:1c:d6:4f:e0:d8:
                    59:43:17:84:bc:eb:84:a2:99:39:9d:ae:d4:66:1d:
                    56:39:e7:c6:21:d5:68:ee:9d:9c:c3:7c:bd:9e:cb:
                    ed:7a:e7:82:62:5f:0c:2f:b7:90:ac:9a:dc:6b:42:
                    ba:86:cc:02:eb:7c:34:de:cc:ea:4f:6f:c9:27:eb:
                    8e:cb:91:f1:70:85:fb:6d:79:05:0d:18:94:a6:79:
                    65:24:aa:17:ea:0f:54:7e:3e:1f:38:9c:2b:37:ae:
                    7f:b9:54:0e:28:02:36:9a:c4:e0:19:9b:7f:f5:1a:
                    df:5e:63:b5:d6:05:01:5d:f8:71:e6:01:d8:c0:73:
                    af:8e:d1:f9:c0:ce:80:0a:b3:af:21:21:1b:e9:16:
                    b9:31:ab:b5:74:15:0d:7d:42:50:dd:d8:60:b0:ce:
                    78:29:dc:ba:e6:4b:20:1d:4b:72:8d:3f:75:f1:5a:
                    4a:36:d8:3d:a6:c5:ba:94:da:d4:a2:83:ce:e1:44:
                    16:92:33:0f:95:e2:9a:54:45:8f:a0:39:dd:43:99:
                    49:6c:49:82:71:f4:8f:dd:ba:58:ba:9a:bb:07:89:
                    b5:44:7c:00:09:9b:2b:b2:3a:ef:94:c2:37:04:9c:
                    04:d5:e8:0d:e6:74:8b:07:11:aa:2a:fd:ba:8d:03:
                    d1:8f
                Exponent: 65537 (0x10001)
        X509v3 extensions:
            X509v3 Basic Constraints: 
                CA:FALSE
            Netscape Comment: 
                OpenSSL Generated Certificate
            X509v3 Subject Key Identifier: 
                92:8C:DD:63:15:30:E5:71:C1:2F:6F:CD:40:F7:BA:3A:E0:D2:A4:95
            X509v3 Authority Key Identifier: 
                keyid:5A:B5:A5:79:95:34:08:FB:4C:17:60:D3:92:88:E7:81:76:C6:B4:3D
                DirName:/C=SE/ST=Stockholm/L=Kista/O=RISE/O=Security Lab/OU=5GEnsure
                serial:B2:DC:A2:EA:37:CA:3A:E6

    Signature Algorithm: md5WithRSAEncryption
         0e:e2:83:5b:c8:7e:2c:7f:f1:07:74:c0:bf:45:53:56:6b:95:
         ee:8b:5a:b0:c8:7e:73:92:21:34:b4:41:13:50:f9:82:e9:fa:
         7d:ab:26:e0:cf:4f:df:e0:58:5a:5a:24:b4:f9:cf:9d:ec:ea:
         b6:e6:73:ba:3a:99:5d:9f:53:26:c2:00:8a:75:cf:70:6c:f3:
         32:9e:63:2d:28:4d:b5:38:1f:a2:3d:e8:34:7d:d1:b5:ae:1c:
         40:9a:12:4f:03:90:31:95:fb:c6:cc:a3:4d:a3:bd:00:d8:e4:
         5d:cc:cd:b8:38:5f:0a:cd:be:eb:b4:89:ea:c8:93:12:63:ac:
         38:0f
-----BEGIN CERTIFICATE-----
MIIDdTCCAt6gAwIBAgIBWDANBgkqhkiG9w0BAQQFADBqMQswCQYDVQQGEwJTRTES
MBAGA1UECBMJU3RvY2tob2xtMQ4wDAYDVQQHEwVLaXN0YTENMAsGA1UEChMEUklT
RTEVMBMGA1UEChMMU2VjdXJpdHkgTGFiMREwDwYDVQQLEwg1R0Vuc3VyZTAeFw0x
OTA0MDQxNDE3NTJaFw0yMDA0MDMxNDE3NTJaMBYxFDASBgNVBAMTC29wZW52c3dp
dGNoMIIBIjANBgkqhkiG9w0BAQEFAAOCAQ8AMIIBCgKCAQEA0OkjLLR8n6nLHNZP
4NhZQxeEvOuEopk5na7UZh1WOefGIdVo7p2cw3y9nsvteueCYl8ML7eQrJrca0K6
hswC63w03szqT2/JJ+uOy5HxcIX7bXkFDRiUpnllJKoX6g9Ufj4fOJwrN65/uVQO
KAI2msTgGZt/9RrfXmO11gUBXfhx5gHYwHOvjtH5wM6ACrOvISEb6Ra5Mau1dBUN
fUJQ3dhgsM54Kdy65ksgHUtyjT918VpKNtg9psW6lNrUooPO4UQWkjMPleKaVEWP
oDndQ5lJbEmCcfSP3bpYupq7B4m1RHwACZsrsjrvlMI3BJwE1egN5nSLBxGqKv26
jQPRjwIDAQABo4H6MIH3MAkGA1UdEwQCMAAwLAYJYIZIAYb4QgENBB8WHU9wZW5T
U0wgR2VuZXJhdGVkIENlcnRpZmljYXRlMB0GA1UdDgQWBBSSjN1jFTDlccEvb81A
97o64NKklTCBnAYDVR0jBIGUMIGRgBRataV5lTQI+0wXYNOSiOeBdsa0PaFupGww
ajELMAkGA1UEBhMCU0UxEjAQBgNVBAgTCVN0b2NraG9sbTEOMAwGA1UEBxMFS2lz
dGExDTALBgNVBAoTBFJJU0UxFTATBgNVBAoTDFNlY3VyaXR5IExhYjERMA8GA1UE
CxMINUdFbnN1cmWCCQCy3KLqN8o65jANBgkqhkiG9w0BAQQFAAOBgQAO4oNbyH4s
f/EHdMC/RVNWa5Xui1qwyH5zkiE0tEETUPmC6fp9qybgz0/f4FhaWiS0+c+d7Oq2
5nO6Opldn1MmwgCKdc9wbPMynmMtKE21OB+iPeg0fdG1rhxAmhJPA5AxlfvGzKNN
o70A2ORdzM24OF8Kzb7rtInqyJMSY6w4Dw==
-----END CERTIFICATE-----
