Certificate:
    Data:
        Version: 3 (0x2)
        Serial Number: 89 (0x59)
    Signature Algorithm: md5WithRSAEncryption
        Issuer: C=SE, ST=Stockholm, L=Kista, O=RISE, O=Security Lab, OU=5GEnsure
        Validity
            Not Before: Apr  4 14:23:12 2019 GMT
            Not After : Apr  3 14:23:12 2020 GMT
        Subject: CN=openvswitch
        Subject Public Key Info:
            Public Key Algorithm: rsaEncryption
                Public-Key: (2048 bit)
                Modulus:
                    00:a9:08:9f:ba:b7:54:d0:82:a5:4e:0e:9f:4a:2b:
                    2f:0d:7a:f3:af:7d:ac:36:57:ad:78:9e:56:a9:65:
                    5f:59:30:91:eb:b0:b1:19:8d:88:18:78:b1:3a:47:
                    c3:f1:60:3d:54:f3:5e:bf:05:4b:1f:a0:f1:05:fa:
                    7b:be:37:2a:3b:fe:bc:d4:9d:13:7a:81:ae:f9:37:
                    6d:75:b5:65:35:2e:38:de:c3:5a:8b:29:34:bf:a2:
                    d5:a7:f1:86:d7:bc:79:f8:53:11:7a:98:f3:5b:81:
                    63:06:c3:51:fd:87:ba:15:82:d3:00:1f:bb:fa:d1:
                    d7:61:8a:ca:4d:2c:59:55:ab:7e:32:39:62:90:0c:
                    0b:78:7c:ae:f2:35:c1:a5:74:db:14:3d:01:bf:c3:
                    89:b2:ae:46:fa:f2:0e:9a:13:bb:42:96:63:a6:93:
                    a5:8f:6b:3d:d8:61:58:5a:8b:35:d9:5f:40:68:dc:
                    5e:43:9a:ae:77:8e:f7:b3:59:f4:98:bc:27:a6:98:
                    e6:c9:09:d3:8f:64:aa:3b:ae:29:a3:94:9b:65:02:
                    5e:99:5d:d9:36:27:77:d6:be:e7:9a:7c:dd:1c:f1:
                    a8:5e:65:29:b5:90:8c:52:6c:d7:d2:f2:3b:ed:1d:
                    39:89:08:3f:64:77:ec:b1:df:68:8f:e4:9f:a3:b1:
                    3c:63
                Exponent: 65537 (0x10001)
        X509v3 extensions:
            X509v3 Basic Constraints: 
                CA:FALSE
            Netscape Comment: 
                OpenSSL Generated Certificate
            X509v3 Subject Key Identifier: 
                CD:93:07:9E:24:81:16:A5:71:2C:35:53:2E:17:49:18:CF:69:FD:5F
            X509v3 Authority Key Identifier: 
                keyid:5A:B5:A5:79:95:34:08:FB:4C:17:60:D3:92:88:E7:81:76:C6:B4:3D
                DirName:/C=SE/ST=Stockholm/L=Kista/O=RISE/O=Security Lab/OU=5GEnsure
                serial:B2:DC:A2:EA:37:CA:3A:E6

    Signature Algorithm: md5WithRSAEncryption
         9e:25:a6:f2:fd:b0:29:c7:ba:40:c7:5e:55:eb:2f:fe:52:e1:
         b2:1e:73:d0:80:e7:1e:a8:09:41:7d:11:40:63:37:cf:7e:ee:
         ae:86:bb:b3:84:ca:74:33:4f:72:65:99:30:42:01:2e:5c:ce:
         18:28:5b:f7:7f:e0:3c:a1:12:d6:b0:1e:07:d0:a2:97:92:9f:
         79:a5:a3:25:13:b1:ef:67:b9:f6:d4:03:b1:92:3e:60:d2:30:
         49:2c:5e:45:7f:f5:53:d0:24:d6:2d:92:6e:7f:91:8a:0b:0e:
         9e:00:8e:73:2a:09:d5:ea:ac:5a:99:4c:11:d2:7f:a6:8b:76:
         ca:da
-----BEGIN CERTIFICATE-----
MIIDdTCCAt6gAwIBAgIBWTANBgkqhkiG9w0BAQQFADBqMQswCQYDVQQGEwJTRTES
MBAGA1UECBMJU3RvY2tob2xtMQ4wDAYDVQQHEwVLaXN0YTENMAsGA1UEChMEUklT
RTEVMBMGA1UEChMMU2VjdXJpdHkgTGFiMREwDwYDVQQLEwg1R0Vuc3VyZTAeFw0x
OTA0MDQxNDIzMTJaFw0yMDA0MDMxNDIzMTJaMBYxFDASBgNVBAMTC29wZW52c3dp
dGNoMIIBIjANBgkqhkiG9w0BAQEFAAOCAQ8AMIIBCgKCAQEAqQifurdU0IKlTg6f
SisvDXrzr32sNleteJ5WqWVfWTCR67CxGY2IGHixOkfD8WA9VPNevwVLH6DxBfp7
vjcqO/681J0TeoGu+TdtdbVlNS443sNaiyk0v6LVp/GG17x5+FMRepjzW4FjBsNR
/Ye6FYLTAB+7+tHXYYrKTSxZVat+MjlikAwLeHyu8jXBpXTbFD0Bv8OJsq5G+vIO
mhO7QpZjppOlj2s92GFYWos12V9AaNxeQ5qud473s1n0mLwnppjmyQnTj2SqO64p
o5SbZQJemV3ZNid31r7nmnzdHPGoXmUptZCMUmzX0vI77R05iQg/ZHfssd9oj+Sf
o7E8YwIDAQABo4H6MIH3MAkGA1UdEwQCMAAwLAYJYIZIAYb4QgENBB8WHU9wZW5T
U0wgR2VuZXJhdGVkIENlcnRpZmljYXRlMB0GA1UdDgQWBBTNkweeJIEWpXEsNVMu
F0kYz2n9XzCBnAYDVR0jBIGUMIGRgBRataV5lTQI+0wXYNOSiOeBdsa0PaFupGww
ajELMAkGA1UEBhMCU0UxEjAQBgNVBAgTCVN0b2NraG9sbTEOMAwGA1UEBxMFS2lz
dGExDTALBgNVBAoTBFJJU0UxFTATBgNVBAoTDFNlY3VyaXR5IExhYjERMA8GA1UE
CxMINUdFbnN1cmWCCQCy3KLqN8o65jANBgkqhkiG9w0BAQQFAAOBgQCeJaby/bAp
x7pAx15V6y/+UuGyHnPQgOceqAlBfRFAYzfPfu6uhruzhMp0M09yZZkwQgEuXM4Y
KFv3f+A8oRLWsB4H0KKXkp95paMlE7HvZ7n21AOxkj5g0jBJLF5Ff/VT0CTWLZJu
f5GKCw6eAI5zKgnV6qxamUwR0n+mi3bK2g==
-----END CERTIFICATE-----
