Certificate:
    Data:
        Version: 3 (0x2)
        Serial Number: 90 (0x5a)
    Signature Algorithm: md5WithRSAEncryption
        Issuer: C=SE, ST=Stockholm, L=Kista, O=RISE, O=Security Lab, OU=5GEnsure
        Validity
            Not Before: Apr  4 14:28:45 2019 GMT
            Not After : Apr  3 14:28:45 2020 GMT
        Subject: CN=openvswitch
        Subject Public Key Info:
            Public Key Algorithm: rsaEncryption
                Public-Key: (2048 bit)
                Modulus:
                    00:94:25:af:d6:cf:ed:c1:6a:fd:80:82:f6:ec:c6:
                    27:8e:8b:a2:f4:f3:c5:6c:32:75:67:dc:32:67:1e:
                    91:fc:c4:44:a1:90:5f:9a:ec:52:a4:4c:13:67:66:
                    92:57:d6:41:d2:c1:45:fc:a7:02:d9:da:64:52:3b:
                    4b:6b:b5:5b:c7:f6:56:22:03:58:14:66:11:15:4f:
                    39:00:ee:d9:dc:fd:62:4a:e6:a0:f4:56:85:6e:aa:
                    f1:f5:d5:0b:13:7e:87:95:be:0a:48:3a:2d:dd:34:
                    3f:c9:48:1a:0d:55:aa:77:57:c0:77:65:60:1d:00:
                    c4:69:9f:bb:3c:3b:62:d7:f2:99:f0:d4:d2:cc:d1:
                    55:4b:61:1d:77:e5:3b:cf:18:39:53:ab:7a:07:37:
                    f2:97:45:55:f6:79:4a:84:a7:6c:89:45:3d:87:d5:
                    ee:65:64:06:3f:87:2a:7c:0b:62:1d:de:a4:00:37:
                    79:1f:8c:ba:20:f7:a5:48:4c:34:4a:42:ff:66:45:
                    e3:b5:57:7a:08:d0:42:a0:99:3a:fb:0b:13:28:35:
                    7e:3a:05:5a:12:18:a1:84:f6:f9:6a:8f:fb:a0:76:
                    fe:84:5a:ed:30:52:4d:3a:e8:f4:4e:ad:1d:cc:39:
                    38:05:bf:18:4b:a0:55:38:0a:3d:a0:14:8f:7d:14:
                    d2:e1
                Exponent: 65537 (0x10001)
        X509v3 extensions:
            X509v3 Basic Constraints: 
                CA:FALSE
            Netscape Comment: 
                OpenSSL Generated Certificate
            X509v3 Subject Key Identifier: 
                79:B7:7A:D3:EB:7D:4C:D7:CD:DC:5F:42:90:C8:A1:C6:D7:2A:8C:A8
            X509v3 Authority Key Identifier: 
                keyid:5A:B5:A5:79:95:34:08:FB:4C:17:60:D3:92:88:E7:81:76:C6:B4:3D
                DirName:/C=SE/ST=Stockholm/L=Kista/O=RISE/O=Security Lab/OU=5GEnsure
                serial:B2:DC:A2:EA:37:CA:3A:E6

    Signature Algorithm: md5WithRSAEncryption
         b5:64:9c:41:87:ba:a3:a1:27:f0:70:ef:4a:f7:2b:9b:65:00:
         da:53:ab:c8:c8:e3:6c:f8:60:f0:c4:bb:de:fd:fc:df:2c:60:
         27:40:84:21:42:c0:87:cd:d3:96:f9:92:66:63:1e:da:84:f9:
         4d:40:16:e1:fa:f2:c7:4a:e0:ef:f2:ed:b9:d9:7c:ed:02:8f:
         53:d6:9e:30:7f:88:64:28:da:ba:5f:e1:3e:42:31:ca:ae:72:
         52:46:e7:60:fe:1f:e5:d1:01:95:5d:d4:c9:fe:3f:7c:e8:e6:
         3d:bc:ba:94:83:38:66:f4:e0:c0:21:91:1e:e9:cf:4c:fe:66:
         47:9f
-----BEGIN CERTIFICATE-----
MIIDdTCCAt6gAwIBAgIBWjANBgkqhkiG9w0BAQQFADBqMQswCQYDVQQGEwJTRTES
MBAGA1UECBMJU3RvY2tob2xtMQ4wDAYDVQQHEwVLaXN0YTENMAsGA1UEChMEUklT
RTEVMBMGA1UEChMMU2VjdXJpdHkgTGFiMREwDwYDVQQLEwg1R0Vuc3VyZTAeFw0x
OTA0MDQxNDI4NDVaFw0yMDA0MDMxNDI4NDVaMBYxFDASBgNVBAMTC29wZW52c3dp
dGNoMIIBIjANBgkqhkiG9w0BAQEFAAOCAQ8AMIIBCgKCAQEAlCWv1s/twWr9gIL2
7MYnjoui9PPFbDJ1Z9wyZx6R/MREoZBfmuxSpEwTZ2aSV9ZB0sFF/KcC2dpkUjtL
a7Vbx/ZWIgNYFGYRFU85AO7Z3P1iSuag9FaFbqrx9dULE36Hlb4KSDot3TQ/yUga
DVWqd1fAd2VgHQDEaZ+7PDti1/KZ8NTSzNFVS2Edd+U7zxg5U6t6Bzfyl0VV9nlK
hKdsiUU9h9XuZWQGP4cqfAtiHd6kADd5H4y6IPelSEw0SkL/ZkXjtVd6CNBCoJk6
+wsTKDV+OgVaEhihhPb5ao/7oHb+hFrtMFJNOuj0Tq0dzDk4Bb8YS6BVOAo9oBSP
fRTS4QIDAQABo4H6MIH3MAkGA1UdEwQCMAAwLAYJYIZIAYb4QgENBB8WHU9wZW5T
U0wgR2VuZXJhdGVkIENlcnRpZmljYXRlMB0GA1UdDgQWBBR5t3rT631M183cX0KQ
yKHG1yqMqDCBnAYDVR0jBIGUMIGRgBRataV5lTQI+0wXYNOSiOeBdsa0PaFupGww
ajELMAkGA1UEBhMCU0UxEjAQBgNVBAgTCVN0b2NraG9sbTEOMAwGA1UEBxMFS2lz
dGExDTALBgNVBAoTBFJJU0UxFTATBgNVBAoTDFNlY3VyaXR5IExhYjERMA8GA1UE
CxMINUdFbnN1cmWCCQCy3KLqN8o65jANBgkqhkiG9w0BAQQFAAOBgQC1ZJxBh7qj
oSfwcO9K9yubZQDaU6vIyONs+GDwxLve/fzfLGAnQIQhQsCHzdOW+ZJmYx7ahPlN
QBbh+vLHSuDv8u252XztAo9T1p4wf4hkKNq6X+E+QjHKrnJSRudg/h/l0QGVXdTJ
/j986OY9vLqUgzhm9ODAIZEe6c9M/mZHnw==
-----END CERTIFICATE-----
