Certificate:
    Data:
        Version: 3 (0x2)
        Serial Number: 91 (0x5b)
    Signature Algorithm: md5WithRSAEncryption
        Issuer: C=SE, ST=Stockholm, L=Kista, O=RISE, O=Security Lab, OU=5GEnsure
        Validity
            Not Before: Apr  4 14:30:28 2019 GMT
            Not After : Apr  3 14:30:28 2020 GMT
        Subject: CN=openvswitch
        Subject Public Key Info:
            Public Key Algorithm: rsaEncryption
                Public-Key: (2048 bit)
                Modulus:
                    00:b4:f4:59:1f:5b:14:24:3b:83:17:c4:2b:9e:c5:
                    98:92:c3:43:44:64:3b:9d:3d:ab:28:4e:20:0c:8b:
                    30:f7:08:74:23:c3:d6:e8:65:8b:3e:d5:01:f0:21:
                    f9:04:1c:51:45:c0:66:1f:50:5d:d8:5e:49:24:c5:
                    c2:41:ee:55:e9:7c:a2:59:4f:8c:53:e4:ce:03:29:
                    d2:ed:76:3d:67:8e:96:bf:5c:32:45:ce:9a:50:a5:
                    4e:24:15:cb:a5:37:cd:5e:d2:c7:4d:d8:55:db:ab:
                    90:cc:16:00:57:67:66:86:2f:66:19:ba:28:f1:61:
                    23:dc:42:be:84:05:10:9c:ec:0b:d9:62:a7:75:d1:
                    94:d4:1d:fd:9f:a9:01:eb:fb:90:8f:b6:3d:b4:b3:
                    ab:c5:17:3c:f7:98:74:67:a8:12:21:1c:b4:00:78:
                    81:2f:a5:8a:3a:ad:be:0c:16:3f:a6:82:69:ab:5e:
                    34:3d:6a:3d:04:f1:d0:60:d3:aa:0b:9d:56:39:e3:
                    c4:a1:4b:da:9b:2e:63:ff:d1:55:cb:42:81:75:82:
                    c2:d2:bd:84:4b:d9:26:23:79:67:9e:56:f8:81:51:
                    fe:a6:b5:e1:65:c7:15:ee:26:77:3e:f4:26:8c:63:
                    05:67:5e:b4:67:11:39:37:21:85:3a:c5:f8:19:60:
                    2f:55
                Exponent: 65537 (0x10001)
        X509v3 extensions:
            X509v3 Basic Constraints: 
                CA:FALSE
            Netscape Comment: 
                OpenSSL Generated Certificate
            X509v3 Subject Key Identifier: 
                4D:CC:D4:24:99:AA:E7:18:4E:D0:FE:59:D7:9F:E9:EB:09:47:C5:B4
            X509v3 Authority Key Identifier: 
                keyid:5A:B5:A5:79:95:34:08:FB:4C:17:60:D3:92:88:E7:81:76:C6:B4:3D
                DirName:/C=SE/ST=Stockholm/L=Kista/O=RISE/O=Security Lab/OU=5GEnsure
                serial:B2:DC:A2:EA:37:CA:3A:E6

    Signature Algorithm: md5WithRSAEncryption
         c8:60:64:56:88:de:6a:45:05:e8:14:3d:9d:4c:41:2c:d4:5c:
         62:f5:71:71:0c:41:a3:68:cf:2c:55:22:21:a1:fa:9b:46:bd:
         76:4a:65:34:3b:12:bb:45:c7:92:44:c4:00:bb:1d:b0:35:14:
         ed:26:62:69:ab:dc:47:91:48:e4:d2:42:e1:22:56:20:54:7d:
         b8:a8:93:96:72:12:a6:ba:43:fa:be:cd:29:7e:ac:f0:98:bf:
         d8:59:b8:c3:89:e3:86:28:b1:89:1c:b1:79:b4:d0:95:11:54:
         8c:da:ef:4f:c6:46:05:04:b4:57:2b:1f:00:1a:9d:cf:95:b0:
         48:0f
-----BEGIN CERTIFICATE-----
MIIDdTCCAt6gAwIBAgIBWzANBgkqhkiG9w0BAQQFADBqMQswCQYDVQQGEwJTRTES
MBAGA1UECBMJU3RvY2tob2xtMQ4wDAYDVQQHEwVLaXN0YTENMAsGA1UEChMEUklT
RTEVMBMGA1UEChMMU2VjdXJpdHkgTGFiMREwDwYDVQQLEwg1R0Vuc3VyZTAeFw0x
OTA0MDQxNDMwMjhaFw0yMDA0MDMxNDMwMjhaMBYxFDASBgNVBAMTC29wZW52c3dp
dGNoMIIBIjANBgkqhkiG9w0BAQEFAAOCAQ8AMIIBCgKCAQEAtPRZH1sUJDuDF8Qr
nsWYksNDRGQ7nT2rKE4gDIsw9wh0I8PW6GWLPtUB8CH5BBxRRcBmH1Bd2F5JJMXC
Qe5V6XyiWU+MU+TOAynS7XY9Z46Wv1wyRc6aUKVOJBXLpTfNXtLHTdhV26uQzBYA
V2dmhi9mGboo8WEj3EK+hAUQnOwL2WKnddGU1B39n6kB6/uQj7Y9tLOrxRc895h0
Z6gSIRy0AHiBL6WKOq2+DBY/poJpq140PWo9BPHQYNOqC51WOePEoUvamy5j/9FV
y0KBdYLC0r2ES9kmI3lnnlb4gVH+prXhZccV7iZ3PvQmjGMFZ160ZxE5NyGFOsX4
GWAvVQIDAQABo4H6MIH3MAkGA1UdEwQCMAAwLAYJYIZIAYb4QgENBB8WHU9wZW5T
U0wgR2VuZXJhdGVkIENlcnRpZmljYXRlMB0GA1UdDgQWBBRNzNQkmarnGE7Q/lnX
n+nrCUfFtDCBnAYDVR0jBIGUMIGRgBRataV5lTQI+0wXYNOSiOeBdsa0PaFupGww
ajELMAkGA1UEBhMCU0UxEjAQBgNVBAgTCVN0b2NraG9sbTEOMAwGA1UEBxMFS2lz
dGExDTALBgNVBAoTBFJJU0UxFTATBgNVBAoTDFNlY3VyaXR5IExhYjERMA8GA1UE
CxMINUdFbnN1cmWCCQCy3KLqN8o65jANBgkqhkiG9w0BAQQFAAOBgQDIYGRWiN5q
RQXoFD2dTEEs1Fxi9XFxDEGjaM8sVSIhofqbRr12SmU0OxK7RceSRMQAux2wNRTt
JmJpq9xHkUjk0kLhIlYgVH24qJOWchKmukP6vs0pfqzwmL/YWbjDieOGKLGJHLF5
tNCVEVSM2u9PxkYFBLRXKx8AGp3PlbBIDw==
-----END CERTIFICATE-----
