Certificate:
    Data:
        Version: 3 (0x2)
        Serial Number: 95 (0x5f)
    Signature Algorithm: md5WithRSAEncryption
        Issuer: C=SE, ST=Stockholm, L=Kista, O=RISE, O=Security Lab, OU=5GEnsure
        Validity
            Not Before: Apr  4 15:14:53 2019 GMT
            Not After : Apr  3 15:14:53 2020 GMT
        Subject: CN=openvswitch
        Subject Public Key Info:
            Public Key Algorithm: rsaEncryption
                Public-Key: (2048 bit)
                Modulus:
                    00:d6:2d:ff:80:6c:dd:ef:c7:6b:1e:b2:83:6c:67:
                    64:75:8d:87:ea:ad:4f:25:b3:a6:12:58:b1:12:af:
                    2b:b8:90:b6:43:9c:ac:4a:05:d8:22:38:e2:88:14:
                    30:62:59:30:79:91:48:0a:9d:22:06:01:33:57:f7:
                    dd:ac:d6:df:0b:4f:e7:63:fc:38:ec:aa:0c:72:a2:
                    77:43:34:34:03:4e:56:ce:49:e9:ca:fe:88:0c:73:
                    89:37:ea:40:68:76:bf:5f:dc:5c:22:93:53:27:46:
                    8f:c7:29:54:14:bc:bc:30:fd:62:cf:ce:f2:c5:92:
                    00:43:2c:43:a4:52:24:28:6a:de:67:aa:aa:83:22:
                    b2:7e:5a:de:f9:8b:9e:a2:bd:c2:84:32:94:94:1a:
                    92:41:de:8a:9d:d9:42:98:09:db:c3:59:35:a2:89:
                    42:bf:18:d0:5c:c9:d1:f2:ce:d8:b5:58:95:f4:b7:
                    69:0d:36:ad:48:bc:db:46:82:63:2a:65:8d:a7:04:
                    87:3f:82:e4:16:15:71:bf:6a:88:06:8c:70:9d:b2:
                    29:80:1e:a2:4f:40:76:5e:3c:48:c9:c8:fb:1c:97:
                    81:4c:f3:0a:be:cd:03:68:45:57:20:ef:e0:f0:5d:
                    c9:52:eb:15:5b:2c:01:ee:24:f1:b8:55:ec:9a:32:
                    90:d5
                Exponent: 65537 (0x10001)
        X509v3 extensions:
            X509v3 Basic Constraints: 
                CA:FALSE
            Netscape Comment: 
                OpenSSL Generated Certificate
            X509v3 Subject Key Identifier: 
                6A:CA:C6:31:41:1A:2A:43:6D:95:A1:49:C8:2B:30:AA:1C:54:3C:40
            X509v3 Authority Key Identifier: 
                keyid:5A:B5:A5:79:95:34:08:FB:4C:17:60:D3:92:88:E7:81:76:C6:B4:3D
                DirName:/C=SE/ST=Stockholm/L=Kista/O=RISE/O=Security Lab/OU=5GEnsure
                serial:B2:DC:A2:EA:37:CA:3A:E6

    Signature Algorithm: md5WithRSAEncryption
         00:8f:c3:76:a6:70:51:7f:a6:f4:10:e2:66:43:ae:85:1b:e8:
         3d:56:62:be:e7:32:f5:44:75:c7:e7:a0:eb:8f:db:0a:df:3d:
         d3:d0:90:54:d4:14:8c:99:5f:c1:ea:c4:27:a2:60:e4:5d:54:
         50:26:16:2a:df:43:08:05:67:bf:a9:22:a0:ca:36:1f:3c:24:
         4d:03:30:bc:94:2b:76:13:b7:75:86:9d:0c:56:b6:85:7b:bc:
         f9:4d:02:fc:22:5c:47:38:f3:60:8f:b1:dd:9b:27:6e:25:a5:
         d6:f5:e2:fa:62:c4:b3:7d:e5:5f:89:82:13:bd:bf:51:5a:b9:
         d4:63
-----BEGIN CERTIFICATE-----
MIIDdTCCAt6gAwIBAgIBXzANBgkqhkiG9w0BAQQFADBqMQswCQYDVQQGEwJTRTES
MBAGA1UECBMJU3RvY2tob2xtMQ4wDAYDVQQHEwVLaXN0YTENMAsGA1UEChMEUklT
RTEVMBMGA1UEChMMU2VjdXJpdHkgTGFiMREwDwYDVQQLEwg1R0Vuc3VyZTAeFw0x
OTA0MDQxNTE0NTNaFw0yMDA0MDMxNTE0NTNaMBYxFDASBgNVBAMTC29wZW52c3dp
dGNoMIIBIjANBgkqhkiG9w0BAQEFAAOCAQ8AMIIBCgKCAQEA1i3/gGzd78drHrKD
bGdkdY2H6q1PJbOmElixEq8ruJC2Q5ysSgXYIjjiiBQwYlkweZFICp0iBgEzV/fd
rNbfC0/nY/w47KoMcqJ3QzQ0A05Wzknpyv6IDHOJN+pAaHa/X9xcIpNTJ0aPxylU
FLy8MP1iz87yxZIAQyxDpFIkKGreZ6qqgyKyflre+Yueor3ChDKUlBqSQd6KndlC
mAnbw1k1oolCvxjQXMnR8s7YtViV9LdpDTatSLzbRoJjKmWNpwSHP4LkFhVxv2qI
BoxwnbIpgB6iT0B2XjxIycj7HJeBTPMKvs0DaEVXIO/g8F3JUusVWywB7iTxuFXs
mjKQ1QIDAQABo4H6MIH3MAkGA1UdEwQCMAAwLAYJYIZIAYb4QgENBB8WHU9wZW5T
U0wgR2VuZXJhdGVkIENlcnRpZmljYXRlMB0GA1UdDgQWBBRqysYxQRoqQ22VoUnI
KzCqHFQ8QDCBnAYDVR0jBIGUMIGRgBRataV5lTQI+0wXYNOSiOeBdsa0PaFupGww
ajELMAkGA1UEBhMCU0UxEjAQBgNVBAgTCVN0b2NraG9sbTEOMAwGA1UEBxMFS2lz
dGExDTALBgNVBAoTBFJJU0UxFTATBgNVBAoTDFNlY3VyaXR5IExhYjERMA8GA1UE
CxMINUdFbnN1cmWCCQCy3KLqN8o65jANBgkqhkiG9w0BAQQFAAOBgQAAj8N2pnBR
f6b0EOJmQ66FG+g9VmK+5zL1RHXH56Drj9sK3z3T0JBU1BSMmV/B6sQnomDkXVRQ
JhYq30MIBWe/qSKgyjYfPCRNAzC8lCt2E7d1hp0MVraFe7z5TQL8IlxHOPNgj7Hd
myduJaXW9eL6YsSzfeVfiYITvb9RWrnUYw==
-----END CERTIFICATE-----
