Certificate:
    Data:
        Version: 3 (0x2)
        Serial Number: 96 (0x60)
    Signature Algorithm: md5WithRSAEncryption
        Issuer: C=SE, ST=Stockholm, L=Kista, O=RISE, O=Security Lab, OU=5GEnsure
        Validity
            Not Before: Apr  4 15:14:56 2019 GMT
            Not After : Apr  3 15:14:56 2020 GMT
        Subject: CN=openvswitch
        Subject Public Key Info:
            Public Key Algorithm: rsaEncryption
                Public-Key: (2048 bit)
                Modulus:
                    00:d6:2d:ff:80:6c:dd:ef:c7:6b:1e:b2:83:6c:67:
                    64:75:8d:87:ea:ad:4f:25:b3:a6:12:58:b1:12:af:
                    2b:b8:90:b6:43:9c:ac:4a:05:d8:22:38:e2:88:14:
                    30:62:59:30:79:91:48:0a:9d:22:06:01:33:57:f7:
                    dd:ac:d6:df:0b:4f:e7:63:fc:38:ec:aa:0c:72:a2:
                    77:43:34:34:03:4e:56:ce:49:e9:ca:fe:88:0c:73:
                    89:37:ea:40:68:76:bf:5f:dc:5c:22:93:53:27:46:
                    8f:c7:29:54:14:bc:bc:30:fd:62:cf:ce:f2:c5:92:
                    00:43:2c:43:a4:52:24:28:6a:de:67:aa:aa:83:22:
                    b2:7e:5a:de:f9:8b:9e:a2:bd:c2:84:32:94:94:1a:
                    92:41:de:8a:9d:d9:42:98:09:db:c3:59:35:a2:89:
                    42:bf:18:d0:5c:c9:d1:f2:ce:d8:b5:58:95:f4:b7:
                    69:0d:36:ad:48:bc:db:46:82:63:2a:65:8d:a7:04:
                    87:3f:82:e4:16:15:71:bf:6a:88:06:8c:70:9d:b2:
                    29:80:1e:a2:4f:40:76:5e:3c:48:c9:c8:fb:1c:97:
                    81:4c:f3:0a:be:cd:03:68:45:57:20:ef:e0:f0:5d:
                    c9:52:eb:15:5b:2c:01:ee:24:f1:b8:55:ec:9a:32:
                    90:d5
                Exponent: 65537 (0x10001)
        X509v3 extensions:
            X509v3 Basic Constraints: 
                CA:FALSE
            Netscape Comment: 
                OpenSSL Generated Certificate
            X509v3 Subject Key Identifier: 
                6A:CA:C6:31:41:1A:2A:43:6D:95:A1:49:C8:2B:30:AA:1C:54:3C:40
            X509v3 Authority Key Identifier: 
                keyid:5A:B5:A5:79:95:34:08:FB:4C:17:60:D3:92:88:E7:81:76:C6:B4:3D
                DirName:/C=SE/ST=Stockholm/L=Kista/O=RISE/O=Security Lab/OU=5GEnsure
                serial:B2:DC:A2:EA:37:CA:3A:E6

    Signature Algorithm: md5WithRSAEncryption
         bf:c4:d3:d4:35:c9:22:14:82:ef:72:4c:4a:4d:73:5a:32:38:
         9a:cb:23:43:0f:55:04:7c:1c:c3:ae:4b:49:c9:f0:78:31:77:
         32:73:cc:de:f7:ef:27:42:e3:f3:27:01:e1:f7:c9:bd:37:da:
         95:b0:69:34:81:22:45:2e:ec:ba:46:dd:f5:10:46:cd:16:03:
         c0:69:d0:2a:3a:df:61:0f:72:f3:6d:94:f7:a6:34:bb:74:b1:
         ea:13:8e:24:90:c4:28:89:c0:6b:d3:8b:cd:4f:d4:ee:ae:8a:
         d6:c5:15:f5:b6:b0:80:64:73:11:46:73:b6:9a:18:8c:06:34:
         fb:ab
-----BEGIN CERTIFICATE-----
MIIDdTCCAt6gAwIBAgIBYDANBgkqhkiG9w0BAQQFADBqMQswCQYDVQQGEwJTRTES
MBAGA1UECBMJU3RvY2tob2xtMQ4wDAYDVQQHEwVLaXN0YTENMAsGA1UEChMEUklT
RTEVMBMGA1UEChMMU2VjdXJpdHkgTGFiMREwDwYDVQQLEwg1R0Vuc3VyZTAeFw0x
OTA0MDQxNTE0NTZaFw0yMDA0MDMxNTE0NTZaMBYxFDASBgNVBAMTC29wZW52c3dp
dGNoMIIBIjANBgkqhkiG9w0BAQEFAAOCAQ8AMIIBCgKCAQEA1i3/gGzd78drHrKD
bGdkdY2H6q1PJbOmElixEq8ruJC2Q5ysSgXYIjjiiBQwYlkweZFICp0iBgEzV/fd
rNbfC0/nY/w47KoMcqJ3QzQ0A05Wzknpyv6IDHOJN+pAaHa/X9xcIpNTJ0aPxylU
FLy8MP1iz87yxZIAQyxDpFIkKGreZ6qqgyKyflre+Yueor3ChDKUlBqSQd6KndlC
mAnbw1k1oolCvxjQXMnR8s7YtViV9LdpDTatSLzbRoJjKmWNpwSHP4LkFhVxv2qI
BoxwnbIpgB6iT0B2XjxIycj7HJeBTPMKvs0DaEVXIO/g8F3JUusVWywB7iTxuFXs
mjKQ1QIDAQABo4H6MIH3MAkGA1UdEwQCMAAwLAYJYIZIAYb4QgENBB8WHU9wZW5T
U0wgR2VuZXJhdGVkIENlcnRpZmljYXRlMB0GA1UdDgQWBBRqysYxQRoqQ22VoUnI
KzCqHFQ8QDCBnAYDVR0jBIGUMIGRgBRataV5lTQI+0wXYNOSiOeBdsa0PaFupGww
ajELMAkGA1UEBhMCU0UxEjAQBgNVBAgTCVN0b2NraG9sbTEOMAwGA1UEBxMFS2lz
dGExDTALBgNVBAoTBFJJU0UxFTATBgNVBAoTDFNlY3VyaXR5IExhYjERMA8GA1UE
CxMINUdFbnN1cmWCCQCy3KLqN8o65jANBgkqhkiG9w0BAQQFAAOBgQC/xNPUNcki
FILvckxKTXNaMjiayyNDD1UEfBzDrktJyfB4MXcyc8ze9+8nQuPzJwHh98m9N9qV
sGk0gSJFLuy6Rt31EEbNFgPAadAqOt9hD3LzbZT3pjS7dLHqE44kkMQoicBr04vN
T9TurorWxRX1trCAZHMRRnO2mhiMBjT7qw==
-----END CERTIFICATE-----
