Certificate:
    Data:
        Version: 3 (0x2)
        Serial Number: 97 (0x61)
    Signature Algorithm: md5WithRSAEncryption
        Issuer: C=SE, ST=Stockholm, L=Kista, O=RISE, O=Security Lab, OU=5GEnsure
        Validity
            Not Before: Apr  4 15:15:48 2019 GMT
            Not After : Apr  3 15:15:48 2020 GMT
        Subject: CN=openvswitch
        Subject Public Key Info:
            Public Key Algorithm: rsaEncryption
                Public-Key: (2048 bit)
                Modulus:
                    00:99:86:2d:11:bb:41:fd:6b:0b:51:21:bc:f2:e6:
                    6a:06:91:60:04:7b:38:4d:ba:c2:68:c5:fc:b3:f9:
                    b8:11:3d:e9:9a:3e:42:80:dc:03:05:87:2e:f2:cd:
                    fb:17:c6:c8:cd:c6:f7:c1:0d:60:30:ca:c6:26:15:
                    09:74:4b:cf:54:a2:b8:12:b5:eb:b7:41:30:db:d7:
                    e5:20:bc:8e:cd:1f:b4:c3:52:37:9b:2c:cb:28:d6:
                    db:32:8e:9f:97:16:8f:7c:d2:cf:db:b6:9f:75:d8:
                    d1:50:27:bd:c9:c5:07:e1:b4:41:7f:67:90:6e:97:
                    73:ba:77:23:61:e1:c7:1f:76:6b:a4:79:d3:f1:c1:
                    44:b0:de:e9:9c:b4:ea:5e:af:9f:25:02:58:b5:6c:
                    7f:23:9f:97:8f:a1:f6:cf:ae:42:67:e9:a2:c6:a2:
                    a6:85:f7:b1:3c:34:0a:3c:43:31:f3:cb:ee:e5:4f:
                    42:05:be:41:05:29:ca:79:a8:cb:d0:ad:91:6e:36:
                    40:a5:b0:a2:c5:5c:b9:b0:57:5c:b3:d9:e7:26:e1:
                    fb:db:77:35:9e:72:75:a8:4b:9f:d6:81:b0:37:19:
                    71:84:11:30:bd:a2:3a:d6:f6:03:86:d8:c0:d8:e8:
                    f7:0d:46:19:12:01:69:05:dd:af:d2:b2:7e:5e:a9:
                    cb:99
                Exponent: 65537 (0x10001)
        X509v3 extensions:
            X509v3 Basic Constraints: 
                CA:FALSE
            Netscape Comment: 
                OpenSSL Generated Certificate
            X509v3 Subject Key Identifier: 
                9C:06:80:1E:00:C5:B3:97:6D:B6:4C:31:87:FC:B1:17:FB:07:CB:7B
            X509v3 Authority Key Identifier: 
                keyid:5A:B5:A5:79:95:34:08:FB:4C:17:60:D3:92:88:E7:81:76:C6:B4:3D
                DirName:/C=SE/ST=Stockholm/L=Kista/O=RISE/O=Security Lab/OU=5GEnsure
                serial:B2:DC:A2:EA:37:CA:3A:E6

    Signature Algorithm: md5WithRSAEncryption
         26:d6:56:35:02:10:b8:98:54:1a:ff:32:ce:2f:40:ea:4a:4c:
         36:9f:ac:17:67:b1:7f:1b:a7:75:d9:e9:e4:18:de:35:e6:c2:
         d2:9b:44:80:33:96:cf:f9:49:f3:12:58:81:cb:b6:26:01:56:
         91:89:fc:1b:ba:79:16:ab:4a:65:b7:2b:24:6a:39:c0:3c:66:
         45:01:b1:3a:c0:ab:2e:0c:75:04:ef:2b:1b:82:a7:4a:20:37:
         a7:4b:85:68:e5:10:12:69:ae:02:0c:84:6c:b5:97:d2:63:99:
         0d:15:c1:0a:91:11:8e:c9:08:7b:61:e1:34:80:de:9a:10:6a:
         49:c0
-----BEGIN CERTIFICATE-----
MIIDdTCCAt6gAwIBAgIBYTANBgkqhkiG9w0BAQQFADBqMQswCQYDVQQGEwJTRTES
MBAGA1UECBMJU3RvY2tob2xtMQ4wDAYDVQQHEwVLaXN0YTENMAsGA1UEChMEUklT
RTEVMBMGA1UEChMMU2VjdXJpdHkgTGFiMREwDwYDVQQLEwg1R0Vuc3VyZTAeFw0x
OTA0MDQxNTE1NDhaFw0yMDA0MDMxNTE1NDhaMBYxFDASBgNVBAMTC29wZW52c3dp
dGNoMIIBIjANBgkqhkiG9w0BAQEFAAOCAQ8AMIIBCgKCAQEAmYYtEbtB/WsLUSG8
8uZqBpFgBHs4TbrCaMX8s/m4ET3pmj5CgNwDBYcu8s37F8bIzcb3wQ1gMMrGJhUJ
dEvPVKK4ErXrt0Ew29flILyOzR+0w1I3myzLKNbbMo6flxaPfNLP27afddjRUCe9
ycUH4bRBf2eQbpdzuncjYeHHH3ZrpHnT8cFEsN7pnLTqXq+fJQJYtWx/I5+Xj6H2
z65CZ+mixqKmhfexPDQKPEMx88vu5U9CBb5BBSnKeajL0K2RbjZApbCixVy5sFdc
s9nnJuH723c1nnJ1qEuf1oGwNxlxhBEwvaI61vYDhtjA2Oj3DUYZEgFpBd2v0rJ+
XqnLmQIDAQABo4H6MIH3MAkGA1UdEwQCMAAwLAYJYIZIAYb4QgENBB8WHU9wZW5T
U0wgR2VuZXJhdGVkIENlcnRpZmljYXRlMB0GA1UdDgQWBBScBoAeAMWzl222TDGH
/LEX+wfLezCBnAYDVR0jBIGUMIGRgBRataV5lTQI+0wXYNOSiOeBdsa0PaFupGww
ajELMAkGA1UEBhMCU0UxEjAQBgNVBAgTCVN0b2NraG9sbTEOMAwGA1UEBxMFS2lz
dGExDTALBgNVBAoTBFJJU0UxFTATBgNVBAoTDFNlY3VyaXR5IExhYjERMA8GA1UE
CxMINUdFbnN1cmWCCQCy3KLqN8o65jANBgkqhkiG9w0BAQQFAAOBgQAm1lY1AhC4
mFQa/zLOL0DqSkw2n6wXZ7F/G6d12enkGN415sLSm0SAM5bP+UnzEliBy7YmAVaR
ifwbunkWq0pltyskajnAPGZFAbE6wKsuDHUE7ysbgqdKIDenS4Vo5RASaa4CDIRs
tZfSY5kNFcEKkRGOyQh7YeE0gN6aEGpJwA==
-----END CERTIFICATE-----
