Certificate:
    Data:
        Version: 3 (0x2)
        Serial Number: 98 (0x62)
    Signature Algorithm: md5WithRSAEncryption
        Issuer: C=SE, ST=Stockholm, L=Kista, O=RISE, O=Security Lab, OU=5GEnsure
        Validity
            Not Before: Apr  4 15:17:09 2019 GMT
            Not After : Apr  3 15:17:09 2020 GMT
        Subject: CN=openvswitch
        Subject Public Key Info:
            Public Key Algorithm: rsaEncryption
                Public-Key: (2048 bit)
                Modulus:
                    00:ce:7c:1c:a9:0b:eb:02:24:9b:d4:37:7d:ac:00:
                    7a:43:5d:2a:62:60:a6:3e:5f:a1:41:c6:84:0e:f6:
                    4a:09:fc:32:69:fa:a2:ba:f2:7f:cd:e8:c8:7b:26:
                    13:3b:3c:7d:09:92:10:d0:ec:a9:d9:b2:b8:a8:78:
                    a9:de:91:52:2f:74:14:94:c1:c7:9a:d3:34:ba:80:
                    95:34:d4:a8:62:93:4f:60:ab:46:de:f2:f4:99:82:
                    f6:b3:79:e7:c0:4c:23:41:c4:25:ed:b6:65:0b:6e:
                    46:02:5b:3b:76:2d:4f:3b:89:3a:2f:82:04:0e:0e:
                    52:da:8c:70:a8:6c:99:66:70:56:6f:9c:1d:4f:93:
                    ee:b7:31:9d:05:f7:29:37:56:37:45:1e:44:b7:8f:
                    3c:d3:16:e3:cd:75:a0:17:06:6e:91:11:c1:48:48:
                    cf:cf:e1:2b:6a:08:57:ed:de:85:83:4a:15:ec:1a:
                    7c:27:a8:20:38:68:b6:4b:7a:18:6a:3c:01:44:57:
                    56:0f:bb:b6:82:1a:c2:9c:97:b6:32:95:f2:53:18:
                    75:2c:ae:67:d5:70:12:32:9a:e0:04:dc:92:2e:06:
                    d0:05:3c:be:82:4b:ea:87:15:ca:84:27:ea:c7:c4:
                    98:b7:39:17:43:d6:40:d6:37:f1:60:e4:d7:1c:cf:
                    75:17
                Exponent: 65537 (0x10001)
        X509v3 extensions:
            X509v3 Basic Constraints: 
                CA:FALSE
            Netscape Comment: 
                OpenSSL Generated Certificate
            X509v3 Subject Key Identifier: 
                DA:9F:C9:A7:CE:5C:06:87:08:A1:D2:2E:A5:CF:17:29:7D:F6:38:7E
            X509v3 Authority Key Identifier: 
                keyid:5A:B5:A5:79:95:34:08:FB:4C:17:60:D3:92:88:E7:81:76:C6:B4:3D
                DirName:/C=SE/ST=Stockholm/L=Kista/O=RISE/O=Security Lab/OU=5GEnsure
                serial:B2:DC:A2:EA:37:CA:3A:E6

    Signature Algorithm: md5WithRSAEncryption
         4d:ba:ad:47:58:f3:9e:11:81:d2:ab:c1:7b:38:41:54:ca:64:
         85:d0:6c:83:c5:7e:63:0e:bd:3e:4f:91:37:46:95:bb:56:10:
         0b:ab:77:16:59:46:15:de:00:9b:7d:18:20:56:ba:61:aa:30:
         36:e9:06:7c:3b:b5:b0:5a:ef:e0:9e:3d:b6:09:33:cc:ce:67:
         91:eb:39:80:ba:68:c0:4c:fd:af:ab:e9:46:6a:16:78:c2:3f:
         2e:5e:09:be:f5:20:48:b5:ec:6e:e9:21:88:72:fa:d7:08:e6:
         18:d9:62:18:7e:48:9c:c0:34:76:12:c9:69:e7:83:67:dc:d6:
         57:cf
-----BEGIN CERTIFICATE-----
MIIDdTCCAt6gAwIBAgIBYjANBgkqhkiG9w0BAQQFADBqMQswCQYDVQQGEwJTRTES
MBAGA1UECBMJU3RvY2tob2xtMQ4wDAYDVQQHEwVLaXN0YTENMAsGA1UEChMEUklT
RTEVMBMGA1UEChMMU2VjdXJpdHkgTGFiMREwDwYDVQQLEwg1R0Vuc3VyZTAeFw0x
OTA0MDQxNTE3MDlaFw0yMDA0MDMxNTE3MDlaMBYxFDASBgNVBAMTC29wZW52c3dp
dGNoMIIBIjANBgkqhkiG9w0BAQEFAAOCAQ8AMIIBCgKCAQEAznwcqQvrAiSb1Dd9
rAB6Q10qYmCmPl+hQcaEDvZKCfwyafqiuvJ/zejIeyYTOzx9CZIQ0Oyp2bK4qHip
3pFSL3QUlMHHmtM0uoCVNNSoYpNPYKtG3vL0mYL2s3nnwEwjQcQl7bZlC25GAls7
di1PO4k6L4IEDg5S2oxwqGyZZnBWb5wdT5PutzGdBfcpN1Y3RR5Et4880xbjzXWg
FwZukRHBSEjPz+EraghX7d6Fg0oV7Bp8J6ggOGi2S3oYajwBRFdWD7u2ghrCnJe2
MpXyUxh1LK5n1XASMprgBNySLgbQBTy+gkvqhxXKhCfqx8SYtzkXQ9ZA1jfxYOTX
HM91FwIDAQABo4H6MIH3MAkGA1UdEwQCMAAwLAYJYIZIAYb4QgENBB8WHU9wZW5T
U0wgR2VuZXJhdGVkIENlcnRpZmljYXRlMB0GA1UdDgQWBBTan8mnzlwGhwih0i6l
zxcpffY4fjCBnAYDVR0jBIGUMIGRgBRataV5lTQI+0wXYNOSiOeBdsa0PaFupGww
ajELMAkGA1UEBhMCU0UxEjAQBgNVBAgTCVN0b2NraG9sbTEOMAwGA1UEBxMFS2lz
dGExDTALBgNVBAoTBFJJU0UxFTATBgNVBAoTDFNlY3VyaXR5IExhYjERMA8GA1UE
CxMINUdFbnN1cmWCCQCy3KLqN8o65jANBgkqhkiG9w0BAQQFAAOBgQBNuq1HWPOe
EYHSq8F7OEFUymSF0GyDxX5jDr0+T5E3RpW7VhALq3cWWUYV3gCbfRggVrphqjA2
6QZ8O7WwWu/gnj22CTPMzmeR6zmAumjATP2vq+lGahZ4wj8uXgm+9SBItexu6SGI
cvrXCOYY2WIYfkicwDR2Eslp54Nn3NZXzw==
-----END CERTIFICATE-----
