Certificate:
    Data:
        Version: 3 (0x2)
        Serial Number: 99 (0x63)
    Signature Algorithm: md5WithRSAEncryption
        Issuer: C=SE, ST=Stockholm, L=Kista, O=RISE, O=Security Lab, OU=5GEnsure
        Validity
            Not Before: Apr  4 15:18:16 2019 GMT
            Not After : Apr  3 15:18:16 2020 GMT
        Subject: CN=openvswitch
        Subject Public Key Info:
            Public Key Algorithm: rsaEncryption
                Public-Key: (2048 bit)
                Modulus:
                    00:ab:49:76:3b:95:51:0c:6c:8b:f3:f9:e4:d1:c1:
                    13:2a:ed:f1:3a:48:8c:e0:33:0b:4c:db:04:1d:58:
                    24:74:de:49:b1:27:a2:ca:44:bd:b3:b9:da:f7:09:
                    0b:a1:89:33:59:a3:0e:ec:40:e5:c3:86:4f:95:2d:
                    45:d8:d2:c3:a5:95:85:35:cb:3e:a1:ce:58:70:7e:
                    d7:93:e2:42:c5:7e:46:53:31:40:8d:62:1e:e2:f9:
                    c1:26:ed:52:79:2d:fe:6f:c1:36:5e:21:b0:a7:3e:
                    a4:10:48:e7:5a:bf:a8:c8:6a:33:12:eb:42:cc:e7:
                    5d:a0:d8:56:b9:22:3d:69:b8:f1:18:30:52:49:08:
                    8f:34:9c:93:8a:fd:b1:67:3e:91:3e:c4:7f:a2:41:
                    8d:53:15:1f:55:f4:59:5f:6f:b0:d7:c5:9f:eb:e4:
                    74:8e:be:bd:c0:c3:74:28:59:cb:50:19:e1:17:f9:
                    a7:cd:69:90:4c:92:d1:c2:bf:43:33:bd:ea:4b:4a:
                    e6:74:ac:83:57:8e:66:e3:bc:1b:d9:e8:c6:b7:68:
                    21:d7:a1:ef:78:53:e4:b8:93:90:42:8c:20:e3:3c:
                    00:d2:a2:a4:cb:19:5c:f4:58:c7:ba:e0:ee:b2:bf:
                    10:a6:ff:6c:00:de:a0:41:c6:4a:26:09:b7:2a:04:
                    8b:61
                Exponent: 65537 (0x10001)
        X509v3 extensions:
            X509v3 Basic Constraints: 
                CA:FALSE
            Netscape Comment: 
                OpenSSL Generated Certificate
            X509v3 Subject Key Identifier: 
                0F:21:04:6B:33:26:FA:F2:9C:AB:EB:4E:2E:A8:2B:B8:EE:D8:27:3B
            X509v3 Authority Key Identifier: 
                keyid:5A:B5:A5:79:95:34:08:FB:4C:17:60:D3:92:88:E7:81:76:C6:B4:3D
                DirName:/C=SE/ST=Stockholm/L=Kista/O=RISE/O=Security Lab/OU=5GEnsure
                serial:B2:DC:A2:EA:37:CA:3A:E6

    Signature Algorithm: md5WithRSAEncryption
         01:f7:51:70:76:1e:45:7d:44:18:c4:66:44:6a:a3:b7:f0:b9:
         0a:9e:86:5e:05:24:b6:b8:54:4b:f8:47:f8:de:d3:10:29:88:
         b0:40:67:e9:56:5a:d6:a0:a2:2f:70:5b:90:62:05:a7:af:cb:
         a0:23:71:45:58:cc:2b:f4:c9:b9:a2:a3:96:ab:2f:5f:3e:8a:
         92:ec:79:f4:e3:f0:4a:25:d3:f1:cf:2c:22:da:88:21:7c:97:
         e6:e6:57:48:3d:6a:0c:3e:4c:bb:e4:20:79:a6:f9:2f:d0:1c:
         a5:a0:87:73:d1:b3:59:db:df:18:9b:3b:b8:30:dd:07:7e:83:
         41:77
-----BEGIN CERTIFICATE-----
MIIDdTCCAt6gAwIBAgIBYzANBgkqhkiG9w0BAQQFADBqMQswCQYDVQQGEwJTRTES
MBAGA1UECBMJU3RvY2tob2xtMQ4wDAYDVQQHEwVLaXN0YTENMAsGA1UEChMEUklT
RTEVMBMGA1UEChMMU2VjdXJpdHkgTGFiMREwDwYDVQQLEwg1R0Vuc3VyZTAeFw0x
OTA0MDQxNTE4MTZaFw0yMDA0MDMxNTE4MTZaMBYxFDASBgNVBAMTC29wZW52c3dp
dGNoMIIBIjANBgkqhkiG9w0BAQEFAAOCAQ8AMIIBCgKCAQEAq0l2O5VRDGyL8/nk
0cETKu3xOkiM4DMLTNsEHVgkdN5JsSeiykS9s7na9wkLoYkzWaMO7EDlw4ZPlS1F
2NLDpZWFNcs+oc5YcH7Xk+JCxX5GUzFAjWIe4vnBJu1SeS3+b8E2XiGwpz6kEEjn
Wr+oyGozEutCzOddoNhWuSI9abjxGDBSSQiPNJyTiv2xZz6RPsR/okGNUxUfVfRZ
X2+w18Wf6+R0jr69wMN0KFnLUBnhF/mnzWmQTJLRwr9DM73qS0rmdKyDV45m47wb
2ejGt2gh16HveFPkuJOQQowg4zwA0qKkyxlc9FjHuuDusr8Qpv9sAN6gQcZKJgm3
KgSLYQIDAQABo4H6MIH3MAkGA1UdEwQCMAAwLAYJYIZIAYb4QgENBB8WHU9wZW5T
U0wgR2VuZXJhdGVkIENlcnRpZmljYXRlMB0GA1UdDgQWBBQPIQRrMyb68pyr604u
qCu47tgnOzCBnAYDVR0jBIGUMIGRgBRataV5lTQI+0wXYNOSiOeBdsa0PaFupGww
ajELMAkGA1UEBhMCU0UxEjAQBgNVBAgTCVN0b2NraG9sbTEOMAwGA1UEBxMFS2lz
dGExDTALBgNVBAoTBFJJU0UxFTATBgNVBAoTDFNlY3VyaXR5IExhYjERMA8GA1UE
CxMINUdFbnN1cmWCCQCy3KLqN8o65jANBgkqhkiG9w0BAQQFAAOBgQAB91Fwdh5F
fUQYxGZEaqO38LkKnoZeBSS2uFRL+Ef43tMQKYiwQGfpVlrWoKIvcFuQYgWnr8ug
I3FFWMwr9Mm5oqOWqy9fPoqS7Hn04/BKJdPxzywi2oghfJfm5ldIPWoMPky75CB5
pvkv0ByloIdz0bNZ298Ymzu4MN0HfoNBdw==
-----END CERTIFICATE-----
