Certificate:
    Data:
        Version: 3 (0x2)
        Serial Number: 100 (0x64)
    Signature Algorithm: md5WithRSAEncryption
        Issuer: C=SE, ST=Stockholm, L=Kista, O=RISE, O=Security Lab, OU=5GEnsure
        Validity
            Not Before: Apr  4 15:19:31 2019 GMT
            Not After : Apr  3 15:19:31 2020 GMT
        Subject: CN=openvswitch
        Subject Public Key Info:
            Public Key Algorithm: rsaEncryption
                Public-Key: (2048 bit)
                Modulus:
                    00:d5:e4:29:e9:74:5b:30:c9:f3:87:46:7d:6a:6f:
                    4f:e7:ef:a3:2b:75:b5:d5:10:00:72:cb:9b:ce:c2:
                    e2:02:bd:be:b6:a3:fc:34:d3:1d:da:8f:07:67:73:
                    a0:7d:77:ce:a8:e3:93:5a:77:3d:4c:00:c6:8b:58:
                    ec:d0:61:6d:a6:45:85:cd:f3:3d:ac:ad:8a:85:aa:
                    2c:6f:ad:d0:71:e6:e9:b1:11:5a:10:d1:4b:a1:25:
                    7c:83:2a:ea:02:e8:35:51:17:3e:9f:78:c5:b5:5a:
                    d2:1d:5f:0f:73:0d:79:82:8c:11:4c:29:4f:1f:f8:
                    43:2f:8d:7e:9c:23:ea:de:15:b0:1a:a1:81:e2:83:
                    eb:ac:68:b4:06:69:e7:5a:60:55:4f:ad:00:40:c4:
                    32:10:86:ec:bd:e7:07:40:b5:8b:58:63:f6:de:b1:
                    b9:cb:a0:27:1b:57:21:8e:98:a7:e6:9c:9f:2c:79:
                    1a:9b:64:03:10:70:ea:34:22:5d:92:de:4a:0a:6d:
                    e7:79:68:1d:fb:30:a2:f4:0e:90:05:06:10:5a:21:
                    8c:54:6b:b1:aa:65:32:fd:b0:94:c6:63:af:d6:80:
                    92:f9:b9:32:eb:38:31:e9:13:10:02:90:a3:0c:7f:
                    b8:02:35:01:20:1d:db:9f:21:d3:4b:53:d2:c7:cb:
                    f3:f7
                Exponent: 65537 (0x10001)
        X509v3 extensions:
            X509v3 Basic Constraints: 
                CA:FALSE
            Netscape Comment: 
                OpenSSL Generated Certificate
            X509v3 Subject Key Identifier: 
                33:D1:18:7D:BC:A1:56:9B:3B:3B:56:81:DD:E5:5A:4A:BD:7F:EB:9F
            X509v3 Authority Key Identifier: 
                keyid:5A:B5:A5:79:95:34:08:FB:4C:17:60:D3:92:88:E7:81:76:C6:B4:3D
                DirName:/C=SE/ST=Stockholm/L=Kista/O=RISE/O=Security Lab/OU=5GEnsure
                serial:B2:DC:A2:EA:37:CA:3A:E6

    Signature Algorithm: md5WithRSAEncryption
         41:e9:db:e7:4a:17:0c:19:d6:36:d7:29:04:b6:c6:fa:23:51:
         de:02:7f:fd:33:79:6b:87:47:33:8a:51:9f:dc:43:00:74:d9:
         09:6a:e8:c0:c8:e5:81:b5:a9:3f:38:9e:73:6b:e3:f5:f2:15:
         74:49:eb:70:f6:9f:8b:c5:32:c9:ed:65:77:7b:16:c3:6f:f3:
         0f:e4:36:ea:e4:bd:f8:e9:d8:0b:76:6d:e6:ab:86:5b:91:bc:
         72:97:c3:2a:30:02:cb:de:00:7e:39:42:ae:40:4f:bc:1d:57:
         3c:b5:6c:4c:65:7c:02:45:a1:08:7e:11:8c:03:4a:a2:4d:46:
         68:df
-----BEGIN CERTIFICATE-----
MIIDdTCCAt6gAwIBAgIBZDANBgkqhkiG9w0BAQQFADBqMQswCQYDVQQGEwJTRTES
MBAGA1UECBMJU3RvY2tob2xtMQ4wDAYDVQQHEwVLaXN0YTENMAsGA1UEChMEUklT
RTEVMBMGA1UEChMMU2VjdXJpdHkgTGFiMREwDwYDVQQLEwg1R0Vuc3VyZTAeFw0x
OTA0MDQxNTE5MzFaFw0yMDA0MDMxNTE5MzFaMBYxFDASBgNVBAMTC29wZW52c3dp
dGNoMIIBIjANBgkqhkiG9w0BAQEFAAOCAQ8AMIIBCgKCAQEA1eQp6XRbMMnzh0Z9
am9P5++jK3W11RAAcsubzsLiAr2+tqP8NNMd2o8HZ3OgfXfOqOOTWnc9TADGi1js
0GFtpkWFzfM9rK2Khaosb63QcebpsRFaENFLoSV8gyrqAug1URc+n3jFtVrSHV8P
cw15gowRTClPH/hDL41+nCPq3hWwGqGB4oPrrGi0BmnnWmBVT60AQMQyEIbsvecH
QLWLWGP23rG5y6AnG1chjpin5pyfLHkam2QDEHDqNCJdkt5KCm3neWgd+zCi9A6Q
BQYQWiGMVGuxqmUy/bCUxmOv1oCS+bky6zgx6RMQApCjDH+4AjUBIB3bnyHTS1PS
x8vz9wIDAQABo4H6MIH3MAkGA1UdEwQCMAAwLAYJYIZIAYb4QgENBB8WHU9wZW5T
U0wgR2VuZXJhdGVkIENlcnRpZmljYXRlMB0GA1UdDgQWBBQz0Rh9vKFWmzs7VoHd
5VpKvX/rnzCBnAYDVR0jBIGUMIGRgBRataV5lTQI+0wXYNOSiOeBdsa0PaFupGww
ajELMAkGA1UEBhMCU0UxEjAQBgNVBAgTCVN0b2NraG9sbTEOMAwGA1UEBxMFS2lz
dGExDTALBgNVBAoTBFJJU0UxFTATBgNVBAoTDFNlY3VyaXR5IExhYjERMA8GA1UE
CxMINUdFbnN1cmWCCQCy3KLqN8o65jANBgkqhkiG9w0BAQQFAAOBgQBB6dvnShcM
GdY21ykEtsb6I1HeAn/9M3lrh0czilGf3EMAdNkJaujAyOWBtak/OJ5za+P18hV0
Setw9p+LxTLJ7WV3exbDb/MP5Dbq5L346dgLdm3mq4Zbkbxyl8MqMALL3gB+OUKu
QE+8HVc8tWxMZXwCRaEIfhGMA0qiTUZo3w==
-----END CERTIFICATE-----
