Certificate:
    Data:
        Version: 3 (0x2)
        Serial Number: 102 (0x66)
    Signature Algorithm: md5WithRSAEncryption
        Issuer: C=SE, ST=Stockholm, L=Kista, O=RISE, O=Security Lab, OU=5GEnsure
        Validity
            Not Before: Apr  4 15:24:41 2019 GMT
            Not After : Apr  3 15:24:41 2020 GMT
        Subject: CN=openvswitch
        Subject Public Key Info:
            Public Key Algorithm: rsaEncryption
                Public-Key: (2048 bit)
                Modulus:
                    00:da:a1:72:0e:be:40:6f:c7:8b:5e:af:aa:ae:fb:
                    14:b5:96:aa:4c:35:41:39:83:47:81:ea:92:f1:c4:
                    6f:5c:c4:f9:e9:00:44:9e:72:a6:a5:85:90:8a:84:
                    e6:4b:36:bc:09:45:32:4d:67:c3:a7:91:86:37:f9:
                    b8:cb:41:41:c2:18:43:f8:a8:05:fb:1b:ab:f8:55:
                    17:98:c0:f4:67:f4:39:9f:33:42:fb:52:14:9d:56:
                    2e:19:f8:2d:af:ce:60:2d:d0:be:d1:6e:5c:7c:88:
                    f1:a3:8d:4b:96:c3:53:f0:7d:a0:1b:a3:2c:5e:66:
                    f8:b5:eb:85:60:4d:46:44:34:4f:c8:ab:bd:4d:2e:
                    b3:95:7f:b2:30:dd:12:25:90:ba:18:72:8d:de:11:
                    91:93:92:a5:5f:1b:71:96:e8:01:38:52:f8:3d:df:
                    70:29:ca:0d:fe:0c:fe:8b:06:26:54:83:f3:79:53:
                    77:08:bc:bc:e0:e1:f5:91:70:bb:21:1f:c0:41:d9:
                    79:ca:cc:c3:62:32:0b:5c:1d:fb:4e:58:ae:5c:9c:
                    bc:c3:44:fa:24:b1:a7:14:ea:03:f8:ab:a4:f8:34:
                    2f:ec:04:5c:47:1a:83:5a:27:4c:8a:b2:ef:66:eb:
                    47:51:e4:49:3e:19:f9:2f:98:fb:e2:6b:70:ae:11:
                    51:51
                Exponent: 65537 (0x10001)
        X509v3 extensions:
            X509v3 Basic Constraints: 
                CA:FALSE
            Netscape Comment: 
                OpenSSL Generated Certificate
            X509v3 Subject Key Identifier: 
                8F:59:42:1D:75:DD:BD:51:E8:CA:91:00:CC:02:A2:5B:2E:E2:46:7D
            X509v3 Authority Key Identifier: 
                keyid:5A:B5:A5:79:95:34:08:FB:4C:17:60:D3:92:88:E7:81:76:C6:B4:3D
                DirName:/C=SE/ST=Stockholm/L=Kista/O=RISE/O=Security Lab/OU=5GEnsure
                serial:B2:DC:A2:EA:37:CA:3A:E6

    Signature Algorithm: md5WithRSAEncryption
         65:d4:e6:c9:3c:2c:ed:9c:e0:f1:22:da:21:e8:11:b7:0b:5e:
         a0:05:b1:29:5a:60:5b:6b:19:7a:1d:33:60:45:2b:33:a5:f3:
         d4:e5:80:6d:b1:24:fe:1f:9c:39:5b:a1:47:3d:b7:99:97:ee:
         fa:86:7f:c0:4e:e8:b1:1b:7c:aa:a9:c3:22:64:8e:8f:32:7b:
         ac:d7:c6:f3:b0:97:3b:9d:b6:29:61:63:19:53:22:83:f2:d8:
         b4:06:99:43:5b:66:3a:7a:30:06:8b:51:2d:c0:59:01:0b:1a:
         a9:88:55:a9:28:bc:52:9f:14:56:64:e6:70:fb:06:57:5e:59:
         72:87
-----BEGIN CERTIFICATE-----
MIIDdTCCAt6gAwIBAgIBZjANBgkqhkiG9w0BAQQFADBqMQswCQYDVQQGEwJTRTES
MBAGA1UECBMJU3RvY2tob2xtMQ4wDAYDVQQHEwVLaXN0YTENMAsGA1UEChMEUklT
RTEVMBMGA1UEChMMU2VjdXJpdHkgTGFiMREwDwYDVQQLEwg1R0Vuc3VyZTAeFw0x
OTA0MDQxNTI0NDFaFw0yMDA0MDMxNTI0NDFaMBYxFDASBgNVBAMTC29wZW52c3dp
dGNoMIIBIjANBgkqhkiG9w0BAQEFAAOCAQ8AMIIBCgKCAQEA2qFyDr5Ab8eLXq+q
rvsUtZaqTDVBOYNHgeqS8cRvXMT56QBEnnKmpYWQioTmSza8CUUyTWfDp5GGN/m4
y0FBwhhD+KgF+xur+FUXmMD0Z/Q5nzNC+1IUnVYuGfgtr85gLdC+0W5cfIjxo41L
lsNT8H2gG6MsXmb4teuFYE1GRDRPyKu9TS6zlX+yMN0SJZC6GHKN3hGRk5KlXxtx
lugBOFL4Pd9wKcoN/gz+iwYmVIPzeVN3CLy84OH1kXC7IR/AQdl5yszDYjILXB37
TliuXJy8w0T6JLGnFOoD+Kuk+DQv7ARcRxqDWidMirLvZutHUeRJPhn5L5j74mtw
rhFRUQIDAQABo4H6MIH3MAkGA1UdEwQCMAAwLAYJYIZIAYb4QgENBB8WHU9wZW5T
U0wgR2VuZXJhdGVkIENlcnRpZmljYXRlMB0GA1UdDgQWBBSPWUIddd29UejKkQDM
AqJbLuJGfTCBnAYDVR0jBIGUMIGRgBRataV5lTQI+0wXYNOSiOeBdsa0PaFupGww
ajELMAkGA1UEBhMCU0UxEjAQBgNVBAgTCVN0b2NraG9sbTEOMAwGA1UEBxMFS2lz
dGExDTALBgNVBAoTBFJJU0UxFTATBgNVBAoTDFNlY3VyaXR5IExhYjERMA8GA1UE
CxMINUdFbnN1cmWCCQCy3KLqN8o65jANBgkqhkiG9w0BAQQFAAOBgQBl1ObJPCzt
nODxItoh6BG3C16gBbEpWmBbaxl6HTNgRSszpfPU5YBtsST+H5w5W6FHPbeZl+76
hn/ATuixG3yqqcMiZI6PMnus18bzsJc7nbYpYWMZUyKD8ti0BplDW2Y6ejAGi1Et
wFkBCxqpiFWpKLxSnxRWZOZw+wZXXllyhw==
-----END CERTIFICATE-----
