Certificate:
    Data:
        Version: 3 (0x2)
        Serial Number: 110 (0x6e)
    Signature Algorithm: md5WithRSAEncryption
        Issuer: C=SE, ST=Stockholm, L=Kista, O=RISE, O=Security Lab, OU=5GEnsure
        Validity
            Not Before: Apr  4 15:25:03 2019 GMT
            Not After : Apr  3 15:25:03 2020 GMT
        Subject: CN=openvswitch
        Subject Public Key Info:
            Public Key Algorithm: rsaEncryption
                Public-Key: (2048 bit)
                Modulus:
                    00:da:a1:72:0e:be:40:6f:c7:8b:5e:af:aa:ae:fb:
                    14:b5:96:aa:4c:35:41:39:83:47:81:ea:92:f1:c4:
                    6f:5c:c4:f9:e9:00:44:9e:72:a6:a5:85:90:8a:84:
                    e6:4b:36:bc:09:45:32:4d:67:c3:a7:91:86:37:f9:
                    b8:cb:41:41:c2:18:43:f8:a8:05:fb:1b:ab:f8:55:
                    17:98:c0:f4:67:f4:39:9f:33:42:fb:52:14:9d:56:
                    2e:19:f8:2d:af:ce:60:2d:d0:be:d1:6e:5c:7c:88:
                    f1:a3:8d:4b:96:c3:53:f0:7d:a0:1b:a3:2c:5e:66:
                    f8:b5:eb:85:60:4d:46:44:34:4f:c8:ab:bd:4d:2e:
                    b3:95:7f:b2:30:dd:12:25:90:ba:18:72:8d:de:11:
                    91:93:92:a5:5f:1b:71:96:e8:01:38:52:f8:3d:df:
                    70:29:ca:0d:fe:0c:fe:8b:06:26:54:83:f3:79:53:
                    77:08:bc:bc:e0:e1:f5:91:70:bb:21:1f:c0:41:d9:
                    79:ca:cc:c3:62:32:0b:5c:1d:fb:4e:58:ae:5c:9c:
                    bc:c3:44:fa:24:b1:a7:14:ea:03:f8:ab:a4:f8:34:
                    2f:ec:04:5c:47:1a:83:5a:27:4c:8a:b2:ef:66:eb:
                    47:51:e4:49:3e:19:f9:2f:98:fb:e2:6b:70:ae:11:
                    51:51
                Exponent: 65537 (0x10001)
        X509v3 extensions:
            X509v3 Basic Constraints: 
                CA:FALSE
            Netscape Comment: 
                OpenSSL Generated Certificate
            X509v3 Subject Key Identifier: 
                8F:59:42:1D:75:DD:BD:51:E8:CA:91:00:CC:02:A2:5B:2E:E2:46:7D
            X509v3 Authority Key Identifier: 
                keyid:5A:B5:A5:79:95:34:08:FB:4C:17:60:D3:92:88:E7:81:76:C6:B4:3D
                DirName:/C=SE/ST=Stockholm/L=Kista/O=RISE/O=Security Lab/OU=5GEnsure
                serial:B2:DC:A2:EA:37:CA:3A:E6

    Signature Algorithm: md5WithRSAEncryption
         8f:c7:2e:c9:d3:7d:8d:37:04:1c:6e:b4:c3:32:aa:95:79:02:
         b3:8a:4b:7f:24:1a:7f:ee:e4:55:9c:96:a8:97:c9:a9:18:03:
         49:bc:5a:d4:0c:2f:3b:52:94:d6:09:04:12:35:a4:80:34:15:
         3f:ad:b7:c7:d3:f7:c7:3e:3c:e2:36:24:1f:f8:32:ac:ef:11:
         a0:e4:7a:aa:73:12:c7:72:d1:95:77:d5:f6:d4:5c:1b:fc:25:
         04:18:1e:fe:9f:27:f5:53:98:92:3c:52:07:bc:ca:86:65:6a:
         9e:97:97:ab:7e:20:e1:97:b1:fe:11:83:15:41:ab:03:73:a1:
         50:0d
-----BEGIN CERTIFICATE-----
MIIDdTCCAt6gAwIBAgIBbjANBgkqhkiG9w0BAQQFADBqMQswCQYDVQQGEwJTRTES
MBAGA1UECBMJU3RvY2tob2xtMQ4wDAYDVQQHEwVLaXN0YTENMAsGA1UEChMEUklT
RTEVMBMGA1UEChMMU2VjdXJpdHkgTGFiMREwDwYDVQQLEwg1R0Vuc3VyZTAeFw0x
OTA0MDQxNTI1MDNaFw0yMDA0MDMxNTI1MDNaMBYxFDASBgNVBAMTC29wZW52c3dp
dGNoMIIBIjANBgkqhkiG9w0BAQEFAAOCAQ8AMIIBCgKCAQEA2qFyDr5Ab8eLXq+q
rvsUtZaqTDVBOYNHgeqS8cRvXMT56QBEnnKmpYWQioTmSza8CUUyTWfDp5GGN/m4
y0FBwhhD+KgF+xur+FUXmMD0Z/Q5nzNC+1IUnVYuGfgtr85gLdC+0W5cfIjxo41L
lsNT8H2gG6MsXmb4teuFYE1GRDRPyKu9TS6zlX+yMN0SJZC6GHKN3hGRk5KlXxtx
lugBOFL4Pd9wKcoN/gz+iwYmVIPzeVN3CLy84OH1kXC7IR/AQdl5yszDYjILXB37
TliuXJy8w0T6JLGnFOoD+Kuk+DQv7ARcRxqDWidMirLvZutHUeRJPhn5L5j74mtw
rhFRUQIDAQABo4H6MIH3MAkGA1UdEwQCMAAwLAYJYIZIAYb4QgENBB8WHU9wZW5T
U0wgR2VuZXJhdGVkIENlcnRpZmljYXRlMB0GA1UdDgQWBBSPWUIddd29UejKkQDM
AqJbLuJGfTCBnAYDVR0jBIGUMIGRgBRataV5lTQI+0wXYNOSiOeBdsa0PaFupGww
ajELMAkGA1UEBhMCU0UxEjAQBgNVBAgTCVN0b2NraG9sbTEOMAwGA1UEBxMFS2lz
dGExDTALBgNVBAoTBFJJU0UxFTATBgNVBAoTDFNlY3VyaXR5IExhYjERMA8GA1UE
CxMINUdFbnN1cmWCCQCy3KLqN8o65jANBgkqhkiG9w0BAQQFAAOBgQCPxy7J032N
NwQcbrTDMqqVeQKzikt/JBp/7uRVnJaol8mpGANJvFrUDC87UpTWCQQSNaSANBU/
rbfH0/fHPjziNiQf+DKs7xGg5HqqcxLHctGVd9X21Fwb/CUEGB7+nyf1U5iSPFIH
vMqGZWqel5erfiDhl7H+EYMVQasDc6FQDQ==
-----END CERTIFICATE-----
