Certificate:
    Data:
        Version: 3 (0x2)
        Serial Number: 111 (0x6f)
    Signature Algorithm: md5WithRSAEncryption
        Issuer: C=SE, ST=Stockholm, L=Kista, O=RISE, O=Security Lab, OU=5GEnsure
        Validity
            Not Before: Apr  4 15:25:54 2019 GMT
            Not After : Apr  3 15:25:54 2020 GMT
        Subject: CN=openvswitch
        Subject Public Key Info:
            Public Key Algorithm: rsaEncryption
                Public-Key: (2048 bit)
                Modulus:
                    00:d8:8c:91:81:90:aa:8b:34:39:e7:b5:d8:7e:e8:
                    df:90:6a:16:cd:10:61:7d:d5:5c:9c:fd:4d:c0:c1:
                    1b:de:e5:63:13:f3:98:61:cb:e3:e2:6a:b5:d9:a9:
                    c5:e7:4a:fc:73:a1:d3:df:bb:7f:32:f9:b1:3a:1c:
                    50:da:63:25:05:24:5b:ee:b0:c8:a2:21:2a:12:5d:
                    19:0f:b1:8c:62:8d:0b:fd:1e:3a:97:01:c3:6b:23:
                    65:6e:64:19:e1:8e:7f:c6:5e:c9:28:00:a5:53:62:
                    31:ec:07:ef:f5:48:cb:a9:ce:c3:e9:03:e3:9c:4e:
                    16:dd:be:59:84:1b:63:ca:45:09:16:53:93:85:dd:
                    42:17:e1:04:07:87:f9:a9:ca:71:60:fc:ce:07:f7:
                    fd:d4:7a:33:be:95:a1:d0:ff:cc:0e:a9:c3:38:7e:
                    8b:60:a0:07:91:3f:58:d0:7c:69:3a:1e:34:8f:ab:
                    9a:5b:92:1a:b9:49:ce:f4:ba:44:7d:9d:52:32:0e:
                    8d:c4:5b:83:6b:b5:d6:3d:47:71:7c:c0:37:ef:da:
                    62:9c:0c:74:26:71:c8:96:9c:63:27:e3:46:83:74:
                    b9:7e:f5:2d:59:32:3f:4b:fc:7a:e7:a0:d5:76:13:
                    37:2b:89:5f:9d:a8:4c:47:4c:97:7d:cc:6f:5e:7c:
                    5d:73
                Exponent: 65537 (0x10001)
        X509v3 extensions:
            X509v3 Basic Constraints: 
                CA:FALSE
            Netscape Comment: 
                OpenSSL Generated Certificate
            X509v3 Subject Key Identifier: 
                BB:7C:05:72:23:4A:5A:E4:15:2E:05:66:B9:B5:60:45:28:D4:74:4F
            X509v3 Authority Key Identifier: 
                keyid:5A:B5:A5:79:95:34:08:FB:4C:17:60:D3:92:88:E7:81:76:C6:B4:3D
                DirName:/C=SE/ST=Stockholm/L=Kista/O=RISE/O=Security Lab/OU=5GEnsure
                serial:B2:DC:A2:EA:37:CA:3A:E6

    Signature Algorithm: md5WithRSAEncryption
         1e:47:25:f3:b3:ec:c7:99:af:f2:12:b2:4d:ee:64:d8:67:93:
         a3:ad:45:40:d7:1f:72:57:31:2f:06:3b:af:4f:ec:c2:2b:b6:
         32:1d:21:27:41:db:67:13:00:59:38:f9:ae:d5:ec:25:91:6f:
         9e:80:ee:eb:24:6d:bc:11:59:6a:76:b9:4a:cd:70:7f:5b:d0:
         32:01:6c:8b:2c:a9:c7:8a:8c:91:6d:89:cf:ca:4b:33:0c:3a:
         60:a5:dc:36:cb:c4:1b:54:98:f5:5d:1c:e8:d4:64:47:4a:1d:
         50:4c:89:74:1c:35:ef:f0:ee:57:fd:46:d5:2a:d4:38:7d:94:
         84:8c
-----BEGIN CERTIFICATE-----
MIIDdTCCAt6gAwIBAgIBbzANBgkqhkiG9w0BAQQFADBqMQswCQYDVQQGEwJTRTES
MBAGA1UECBMJU3RvY2tob2xtMQ4wDAYDVQQHEwVLaXN0YTENMAsGA1UEChMEUklT
RTEVMBMGA1UEChMMU2VjdXJpdHkgTGFiMREwDwYDVQQLEwg1R0Vuc3VyZTAeFw0x
OTA0MDQxNTI1NTRaFw0yMDA0MDMxNTI1NTRaMBYxFDASBgNVBAMTC29wZW52c3dp
dGNoMIIBIjANBgkqhkiG9w0BAQEFAAOCAQ8AMIIBCgKCAQEA2IyRgZCqizQ557XY
fujfkGoWzRBhfdVcnP1NwMEb3uVjE/OYYcvj4mq12anF50r8c6HT37t/MvmxOhxQ
2mMlBSRb7rDIoiEqEl0ZD7GMYo0L/R46lwHDayNlbmQZ4Y5/xl7JKAClU2Ix7Afv
9UjLqc7D6QPjnE4W3b5ZhBtjykUJFlOThd1CF+EEB4f5qcpxYPzOB/f91HozvpWh
0P/MDqnDOH6LYKAHkT9Y0HxpOh40j6uaW5IauUnO9LpEfZ1SMg6NxFuDa7XWPUdx
fMA379pinAx0JnHIlpxjJ+NGg3S5fvUtWTI/S/x656DVdhM3K4lfnahMR0yXfcxv
XnxdcwIDAQABo4H6MIH3MAkGA1UdEwQCMAAwLAYJYIZIAYb4QgENBB8WHU9wZW5T
U0wgR2VuZXJhdGVkIENlcnRpZmljYXRlMB0GA1UdDgQWBBS7fAVyI0pa5BUuBWa5
tWBFKNR0TzCBnAYDVR0jBIGUMIGRgBRataV5lTQI+0wXYNOSiOeBdsa0PaFupGww
ajELMAkGA1UEBhMCU0UxEjAQBgNVBAgTCVN0b2NraG9sbTEOMAwGA1UEBxMFS2lz
dGExDTALBgNVBAoTBFJJU0UxFTATBgNVBAoTDFNlY3VyaXR5IExhYjERMA8GA1UE
CxMINUdFbnN1cmWCCQCy3KLqN8o65jANBgkqhkiG9w0BAQQFAAOBgQAeRyXzs+zH
ma/yErJN7mTYZ5OjrUVA1x9yVzEvBjuvT+zCK7YyHSEnQdtnEwBZOPmu1ewlkW+e
gO7rJG28EVlqdrlKzXB/W9AyAWyLLKnHioyRbYnPykszDDpgpdw2y8QbVJj1XRzo
1GRHSh1QTIl0HDXv8O5X/UbVKtQ4fZSEjA==
-----END CERTIFICATE-----
