Certificate:
    Data:
        Version: 3 (0x2)
        Serial Number: 112 (0x70)
    Signature Algorithm: md5WithRSAEncryption
        Issuer: C=SE, ST=Stockholm, L=Kista, O=RISE, O=Security Lab, OU=5GEnsure
        Validity
            Not Before: Apr  4 15:26:01 2019 GMT
            Not After : Apr  3 15:26:01 2020 GMT
        Subject: CN=openvswitch
        Subject Public Key Info:
            Public Key Algorithm: rsaEncryption
                Public-Key: (2048 bit)
                Modulus:
                    00:d8:8c:91:81:90:aa:8b:34:39:e7:b5:d8:7e:e8:
                    df:90:6a:16:cd:10:61:7d:d5:5c:9c:fd:4d:c0:c1:
                    1b:de:e5:63:13:f3:98:61:cb:e3:e2:6a:b5:d9:a9:
                    c5:e7:4a:fc:73:a1:d3:df:bb:7f:32:f9:b1:3a:1c:
                    50:da:63:25:05:24:5b:ee:b0:c8:a2:21:2a:12:5d:
                    19:0f:b1:8c:62:8d:0b:fd:1e:3a:97:01:c3:6b:23:
                    65:6e:64:19:e1:8e:7f:c6:5e:c9:28:00:a5:53:62:
                    31:ec:07:ef:f5:48:cb:a9:ce:c3:e9:03:e3:9c:4e:
                    16:dd:be:59:84:1b:63:ca:45:09:16:53:93:85:dd:
                    42:17:e1:04:07:87:f9:a9:ca:71:60:fc:ce:07:f7:
                    fd:d4:7a:33:be:95:a1:d0:ff:cc:0e:a9:c3:38:7e:
                    8b:60:a0:07:91:3f:58:d0:7c:69:3a:1e:34:8f:ab:
                    9a:5b:92:1a:b9:49:ce:f4:ba:44:7d:9d:52:32:0e:
                    8d:c4:5b:83:6b:b5:d6:3d:47:71:7c:c0:37:ef:da:
                    62:9c:0c:74:26:71:c8:96:9c:63:27:e3:46:83:74:
                    b9:7e:f5:2d:59:32:3f:4b:fc:7a:e7:a0:d5:76:13:
                    37:2b:89:5f:9d:a8:4c:47:4c:97:7d:cc:6f:5e:7c:
                    5d:73
                Exponent: 65537 (0x10001)
        X509v3 extensions:
            X509v3 Basic Constraints: 
                CA:FALSE
            Netscape Comment: 
                OpenSSL Generated Certificate
            X509v3 Subject Key Identifier: 
                BB:7C:05:72:23:4A:5A:E4:15:2E:05:66:B9:B5:60:45:28:D4:74:4F
            X509v3 Authority Key Identifier: 
                keyid:5A:B5:A5:79:95:34:08:FB:4C:17:60:D3:92:88:E7:81:76:C6:B4:3D
                DirName:/C=SE/ST=Stockholm/L=Kista/O=RISE/O=Security Lab/OU=5GEnsure
                serial:B2:DC:A2:EA:37:CA:3A:E6

    Signature Algorithm: md5WithRSAEncryption
         77:05:77:c4:d4:b3:af:8a:7a:aa:aa:89:99:a5:e7:ed:2e:13:
         90:0a:b2:a1:a1:16:98:22:c9:fb:af:72:52:65:ba:a9:5a:69:
         56:28:e6:6b:5f:32:99:84:7d:98:c0:28:22:4b:86:9d:3e:83:
         d5:db:d1:a5:78:cb:ce:45:96:de:30:76:7b:f5:bb:b7:6e:81:
         ec:6f:9e:5c:c0:62:ff:89:a7:92:6c:16:82:a7:2d:4c:ca:ad:
         97:fb:27:a5:4a:97:46:72:b0:a1:38:d3:66:4f:30:29:ef:65:
         aa:4e:87:96:c1:20:98:c3:95:4e:c7:7d:c2:79:d8:fb:80:f5:
         25:c3
-----BEGIN CERTIFICATE-----
MIIDdTCCAt6gAwIBAgIBcDANBgkqhkiG9w0BAQQFADBqMQswCQYDVQQGEwJTRTES
MBAGA1UECBMJU3RvY2tob2xtMQ4wDAYDVQQHEwVLaXN0YTENMAsGA1UEChMEUklT
RTEVMBMGA1UEChMMU2VjdXJpdHkgTGFiMREwDwYDVQQLEwg1R0Vuc3VyZTAeFw0x
OTA0MDQxNTI2MDFaFw0yMDA0MDMxNTI2MDFaMBYxFDASBgNVBAMTC29wZW52c3dp
dGNoMIIBIjANBgkqhkiG9w0BAQEFAAOCAQ8AMIIBCgKCAQEA2IyRgZCqizQ557XY
fujfkGoWzRBhfdVcnP1NwMEb3uVjE/OYYcvj4mq12anF50r8c6HT37t/MvmxOhxQ
2mMlBSRb7rDIoiEqEl0ZD7GMYo0L/R46lwHDayNlbmQZ4Y5/xl7JKAClU2Ix7Afv
9UjLqc7D6QPjnE4W3b5ZhBtjykUJFlOThd1CF+EEB4f5qcpxYPzOB/f91HozvpWh
0P/MDqnDOH6LYKAHkT9Y0HxpOh40j6uaW5IauUnO9LpEfZ1SMg6NxFuDa7XWPUdx
fMA379pinAx0JnHIlpxjJ+NGg3S5fvUtWTI/S/x656DVdhM3K4lfnahMR0yXfcxv
XnxdcwIDAQABo4H6MIH3MAkGA1UdEwQCMAAwLAYJYIZIAYb4QgENBB8WHU9wZW5T
U0wgR2VuZXJhdGVkIENlcnRpZmljYXRlMB0GA1UdDgQWBBS7fAVyI0pa5BUuBWa5
tWBFKNR0TzCBnAYDVR0jBIGUMIGRgBRataV5lTQI+0wXYNOSiOeBdsa0PaFupGww
ajELMAkGA1UEBhMCU0UxEjAQBgNVBAgTCVN0b2NraG9sbTEOMAwGA1UEBxMFS2lz
dGExDTALBgNVBAoTBFJJU0UxFTATBgNVBAoTDFNlY3VyaXR5IExhYjERMA8GA1UE
CxMINUdFbnN1cmWCCQCy3KLqN8o65jANBgkqhkiG9w0BAQQFAAOBgQB3BXfE1LOv
inqqqomZpeftLhOQCrKhoRaYIsn7r3JSZbqpWmlWKOZrXzKZhH2YwCgiS4adPoPV
29GleMvORZbeMHZ79bu3boHsb55cwGL/iaeSbBaCpy1Myq2X+yelSpdGcrChONNm
TzAp72WqToeWwSCYw5VOx33Cedj7gPUlww==
-----END CERTIFICATE-----
