Certificate:
    Data:
        Version: 3 (0x2)
        Serial Number: 115 (0x73)
    Signature Algorithm: md5WithRSAEncryption
        Issuer: C=SE, ST=Stockholm, L=Kista, O=RISE, O=Security Lab, OU=5GEnsure
        Validity
            Not Before: Apr  4 15:30:43 2019 GMT
            Not After : Apr  3 15:30:43 2020 GMT
        Subject: CN=openvswitch
        Subject Public Key Info:
            Public Key Algorithm: rsaEncryption
                Public-Key: (2048 bit)
                Modulus:
                    00:8f:a9:80:e1:48:97:52:ba:da:97:db:bd:78:36:
                    09:04:0c:2c:0c:f1:32:5f:3f:a9:b1:0c:bb:bc:f9:
                    f9:15:58:e9:1c:0d:e4:4e:7f:f4:a8:a9:94:39:be:
                    f1:63:e9:69:eb:af:2e:e3:bf:7f:f5:c5:63:6f:4c:
                    8f:b1:f0:9a:30:94:7f:ed:1c:88:60:52:3d:64:30:
                    27:f5:e2:86:f9:e6:02:ee:51:f8:37:8f:5f:3a:dc:
                    a0:96:5f:40:a0:37:bc:ee:61:fa:53:56:69:16:0c:
                    06:fb:ad:23:a8:25:91:42:51:6a:e6:9b:d4:7e:86:
                    7d:6e:12:5b:79:82:dd:cb:63:0d:5d:eb:ed:ba:2c:
                    33:16:90:87:91:2c:75:d6:15:91:8b:53:86:ac:7a:
                    6f:06:4d:ef:d7:8c:d1:c3:f1:1b:bd:ff:8e:71:43:
                    61:f6:8a:8b:aa:f2:11:b1:1c:19:e4:1b:74:f3:cb:
                    48:16:b8:96:c5:c6:18:d9:05:32:2f:69:fa:d6:a2:
                    10:2e:fe:01:cb:ec:36:f1:9f:55:3d:08:54:6c:d2:
                    bc:33:ad:5a:fc:38:84:11:7d:43:b5:fa:f8:84:d9:
                    11:ce:c0:f5:c4:4c:77:fc:33:d6:9b:48:42:aa:0e:
                    34:cc:f0:54:78:84:a8:31:93:56:c2:cd:38:6e:db:
                    a9:29
                Exponent: 65537 (0x10001)
        X509v3 extensions:
            X509v3 Basic Constraints: 
                CA:FALSE
            Netscape Comment: 
                OpenSSL Generated Certificate
            X509v3 Subject Key Identifier: 
                8A:A9:C0:02:29:9F:2B:A2:AA:8D:61:BD:9C:F0:2A:C4:FE:D9:61:B2
            X509v3 Authority Key Identifier: 
                keyid:5A:B5:A5:79:95:34:08:FB:4C:17:60:D3:92:88:E7:81:76:C6:B4:3D
                DirName:/C=SE/ST=Stockholm/L=Kista/O=RISE/O=Security Lab/OU=5GEnsure
                serial:B2:DC:A2:EA:37:CA:3A:E6

    Signature Algorithm: md5WithRSAEncryption
         73:71:99:a3:65:3b:85:fd:4c:b9:3a:ba:ef:a4:3a:2b:b2:59:
         af:4f:4b:11:04:dd:40:5a:08:3e:97:ed:5b:25:1f:ec:ee:9b:
         7a:fe:11:ec:d6:f4:e4:8d:02:c5:e5:f2:54:81:72:04:e0:e7:
         ff:dd:0c:f9:1f:bd:54:cc:ae:ea:34:77:35:50:51:3f:a3:cd:
         e8:ad:96:0d:d1:29:48:55:3b:6b:84:03:4a:66:bd:80:73:8a:
         92:ae:4b:f9:70:48:5d:fd:6d:82:09:d2:24:d4:08:7c:55:ca:
         9c:93:f3:0a:43:7b:e2:6e:07:a3:85:1c:0e:b4:09:63:48:54:
         68:7b
-----BEGIN CERTIFICATE-----
MIIDdTCCAt6gAwIBAgIBczANBgkqhkiG9w0BAQQFADBqMQswCQYDVQQGEwJTRTES
MBAGA1UECBMJU3RvY2tob2xtMQ4wDAYDVQQHEwVLaXN0YTENMAsGA1UEChMEUklT
RTEVMBMGA1UEChMMU2VjdXJpdHkgTGFiMREwDwYDVQQLEwg1R0Vuc3VyZTAeFw0x
OTA0MDQxNTMwNDNaFw0yMDA0MDMxNTMwNDNaMBYxFDASBgNVBAMTC29wZW52c3dp
dGNoMIIBIjANBgkqhkiG9w0BAQEFAAOCAQ8AMIIBCgKCAQEAj6mA4UiXUrral9u9
eDYJBAwsDPEyXz+psQy7vPn5FVjpHA3kTn/0qKmUOb7xY+lp668u479/9cVjb0yP
sfCaMJR/7RyIYFI9ZDAn9eKG+eYC7lH4N49fOtygll9AoDe87mH6U1ZpFgwG+60j
qCWRQlFq5pvUfoZ9bhJbeYLdy2MNXevtuiwzFpCHkSx11hWRi1OGrHpvBk3v14zR
w/Ebvf+OcUNh9oqLqvIRsRwZ5Bt088tIFriWxcYY2QUyL2n61qIQLv4By+w28Z9V
PQhUbNK8M61a/DiEEX1Dtfr4hNkRzsD1xEx3/DPWm0hCqg40zPBUeISoMZNWws04
btupKQIDAQABo4H6MIH3MAkGA1UdEwQCMAAwLAYJYIZIAYb4QgENBB8WHU9wZW5T
U0wgR2VuZXJhdGVkIENlcnRpZmljYXRlMB0GA1UdDgQWBBSKqcACKZ8roqqNYb2c
8CrE/tlhsjCBnAYDVR0jBIGUMIGRgBRataV5lTQI+0wXYNOSiOeBdsa0PaFupGww
ajELMAkGA1UEBhMCU0UxEjAQBgNVBAgTCVN0b2NraG9sbTEOMAwGA1UEBxMFS2lz
dGExDTALBgNVBAoTBFJJU0UxFTATBgNVBAoTDFNlY3VyaXR5IExhYjERMA8GA1UE
CxMINUdFbnN1cmWCCQCy3KLqN8o65jANBgkqhkiG9w0BAQQFAAOBgQBzcZmjZTuF
/Uy5OrrvpDorslmvT0sRBN1AWgg+l+1bJR/s7pt6/hHs1vTkjQLF5fJUgXIE4Of/
3Qz5H71UzK7qNHc1UFE/o83orZYN0SlIVTtrhANKZr2Ac4qSrkv5cEhd/W2CCdIk
1Ah8Vcqck/MKQ3vibgejhRwOtAljSFRoew==
-----END CERTIFICATE-----
