Certificate:
    Data:
        Version: 3 (0x2)
        Serial Number: 116 (0x74)
    Signature Algorithm: md5WithRSAEncryption
        Issuer: C=SE, ST=Stockholm, L=Kista, O=RISE, O=Security Lab, OU=5GEnsure
        Validity
            Not Before: Apr  4 15:42:46 2019 GMT
            Not After : Apr  3 15:42:46 2020 GMT
        Subject: CN=openvswitch
        Subject Public Key Info:
            Public Key Algorithm: rsaEncryption
                Public-Key: (2048 bit)
                Modulus:
                    00:90:42:cc:de:91:ca:e1:a4:14:86:1e:82:fd:bb:
                    89:f3:06:cd:21:1c:26:f7:7c:5d:49:dc:fc:21:13:
                    57:ef:67:a6:84:27:c4:e4:7e:2b:5f:99:33:84:19:
                    35:3f:24:0b:5e:a8:51:3b:51:02:c6:2d:83:93:3a:
                    b4:2d:9a:96:04:69:8e:85:21:36:70:00:c2:25:87:
                    75:b7:24:8f:f9:ec:5c:c5:d4:98:fb:9a:ad:d1:e9:
                    a6:a1:dd:88:66:cc:33:73:2a:f5:ff:d2:1c:b4:ad:
                    17:9e:10:20:f5:59:1c:da:f7:2c:ac:7e:ed:3d:b1:
                    66:28:52:48:90:18:0c:eb:03:01:03:12:a0:d0:c7:
                    59:42:86:58:bb:c6:af:be:cd:69:c6:62:9a:82:c7:
                    b0:e7:3f:25:63:bb:c3:d3:a8:5b:f9:6f:25:70:28:
                    cf:12:02:a4:48:5b:a4:f0:43:84:c0:8c:6a:38:e6:
                    68:fc:c3:9b:28:17:71:84:a3:10:5f:bf:da:08:ce:
                    32:7d:23:de:6e:07:38:d1:8b:f8:9c:32:45:33:b7:
                    f5:f6:48:93:0d:87:38:91:95:ff:ad:8e:1f:03:1e:
                    9c:b4:07:1e:68:62:de:1f:04:41:bd:92:33:9b:51:
                    86:4f:0b:03:18:f5:90:16:fa:da:c9:1a:9e:9b:f5:
                    3c:d9
                Exponent: 65537 (0x10001)
        X509v3 extensions:
            X509v3 Basic Constraints: 
                CA:FALSE
            Netscape Comment: 
                OpenSSL Generated Certificate
            X509v3 Subject Key Identifier: 
                39:60:3E:B0:FC:F4:15:56:BA:55:D9:5E:3E:B0:68:14:DC:5C:4C:DB
            X509v3 Authority Key Identifier: 
                keyid:5A:B5:A5:79:95:34:08:FB:4C:17:60:D3:92:88:E7:81:76:C6:B4:3D
                DirName:/C=SE/ST=Stockholm/L=Kista/O=RISE/O=Security Lab/OU=5GEnsure
                serial:B2:DC:A2:EA:37:CA:3A:E6

    Signature Algorithm: md5WithRSAEncryption
         a4:52:ba:5a:a6:f0:1a:fc:0d:42:f8:c2:c6:e7:d1:66:5f:73:
         66:66:68:1a:1c:54:00:f4:c6:5b:dc:ca:79:e1:54:67:b9:a0:
         74:53:08:85:14:2d:26:40:ac:94:a5:f4:c6:63:74:54:a1:27:
         5b:fb:ac:8f:e5:db:8a:a3:39:98:e7:27:30:f4:6c:c3:73:e7:
         99:9c:1a:db:ba:b7:be:9e:a6:ab:46:f3:6e:bd:59:89:86:3b:
         b9:c1:55:72:e4:dd:c4:7f:fe:79:eb:b0:14:e9:93:8c:dd:90:
         79:c6:9f:dc:05:c7:ec:93:93:62:30:32:50:ec:01:b7:72:a7:
         5a:6b
-----BEGIN CERTIFICATE-----
MIIDdTCCAt6gAwIBAgIBdDANBgkqhkiG9w0BAQQFADBqMQswCQYDVQQGEwJTRTES
MBAGA1UECBMJU3RvY2tob2xtMQ4wDAYDVQQHEwVLaXN0YTENMAsGA1UEChMEUklT
RTEVMBMGA1UEChMMU2VjdXJpdHkgTGFiMREwDwYDVQQLEwg1R0Vuc3VyZTAeFw0x
OTA0MDQxNTQyNDZaFw0yMDA0MDMxNTQyNDZaMBYxFDASBgNVBAMTC29wZW52c3dp
dGNoMIIBIjANBgkqhkiG9w0BAQEFAAOCAQ8AMIIBCgKCAQEAkELM3pHK4aQUhh6C
/buJ8wbNIRwm93xdSdz8IRNX72emhCfE5H4rX5kzhBk1PyQLXqhRO1ECxi2Dkzq0
LZqWBGmOhSE2cADCJYd1tySP+excxdSY+5qt0emmod2IZswzcyr1/9IctK0XnhAg
9Vkc2vcsrH7tPbFmKFJIkBgM6wMBAxKg0MdZQoZYu8avvs1pxmKagsew5z8lY7vD
06hb+W8lcCjPEgKkSFuk8EOEwIxqOOZo/MObKBdxhKMQX7/aCM4yfSPebgc40Yv4
nDJFM7f19kiTDYc4kZX/rY4fAx6ctAceaGLeHwRBvZIzm1GGTwsDGPWQFvrayRqe
m/U82QIDAQABo4H6MIH3MAkGA1UdEwQCMAAwLAYJYIZIAYb4QgENBB8WHU9wZW5T
U0wgR2VuZXJhdGVkIENlcnRpZmljYXRlMB0GA1UdDgQWBBQ5YD6w/PQVVrpV2V4+
sGgU3FxM2zCBnAYDVR0jBIGUMIGRgBRataV5lTQI+0wXYNOSiOeBdsa0PaFupGww
ajELMAkGA1UEBhMCU0UxEjAQBgNVBAgTCVN0b2NraG9sbTEOMAwGA1UEBxMFS2lz
dGExDTALBgNVBAoTBFJJU0UxFTATBgNVBAoTDFNlY3VyaXR5IExhYjERMA8GA1UE
CxMINUdFbnN1cmWCCQCy3KLqN8o65jANBgkqhkiG9w0BAQQFAAOBgQCkUrpapvAa
/A1C+MLG59FmX3NmZmgaHFQA9MZb3Mp54VRnuaB0UwiFFC0mQKyUpfTGY3RUoSdb
+6yP5duKozmY5ycw9GzDc+eZnBrbure+nqarRvNuvVmJhju5wVVy5N3Ef/5567AU
6ZOM3ZB5xp/cBcfsk5NiMDJQ7AG3cqdaaw==
-----END CERTIFICATE-----
