Certificate:
    Data:
        Version: 3 (0x2)
        Serial Number: 119 (0x77)
    Signature Algorithm: md5WithRSAEncryption
        Issuer: C=SE, ST=Stockholm, L=Kista, O=RISE, O=Security Lab, OU=5GEnsure
        Validity
            Not Before: Apr  4 16:05:53 2019 GMT
            Not After : Apr  3 16:05:53 2020 GMT
        Subject: CN=openvswitch
        Subject Public Key Info:
            Public Key Algorithm: rsaEncryption
                Public-Key: (2048 bit)
                Modulus:
                    00:d9:5c:fe:15:ea:66:cd:ed:57:19:d2:7e:5d:37:
                    5b:a5:93:66:c0:3f:af:63:72:f0:41:e6:41:e1:77:
                    7f:bc:f0:bc:c9:7c:0e:65:9d:2b:73:37:dd:c1:7b:
                    1e:95:aa:8a:04:3c:73:57:98:24:3c:2b:57:5b:06:
                    ec:dd:57:a6:ef:8b:ea:51:78:ce:f1:0c:7d:60:41:
                    5e:29:bb:5e:ec:25:85:b8:dd:10:39:0b:47:e2:a3:
                    1c:1e:7e:4c:f7:d8:ea:9a:e0:a2:9f:6b:82:a5:89:
                    bc:f8:86:e0:d6:c4:70:01:a1:b5:c0:4f:b2:bd:32:
                    cf:5e:3f:a1:a0:67:a1:27:34:c8:50:4b:5e:f6:30:
                    97:66:2c:f5:b4:38:40:68:4f:3f:5d:cd:d4:7e:c7:
                    41:2b:de:23:27:80:e1:7b:d6:dc:ba:aa:9f:f0:e0:
                    59:c7:20:45:0c:75:55:c9:89:51:82:26:fd:30:9d:
                    17:17:85:f3:fd:29:4a:1c:9e:b6:93:b5:e7:9b:75:
                    7c:6b:f7:40:57:e2:f3:72:ea:cd:0c:df:70:b3:96:
                    42:22:1c:d8:64:d8:fe:ae:bf:ff:53:f6:74:a7:a1:
                    73:0e:4d:8e:cc:35:ef:36:ab:ff:3c:a0:f3:aa:9f:
                    6a:ee:39:56:d0:ef:41:98:d2:d7:be:bb:d1:87:de:
                    6a:03
                Exponent: 65537 (0x10001)
        X509v3 extensions:
            X509v3 Basic Constraints: 
                CA:FALSE
            Netscape Comment: 
                OpenSSL Generated Certificate
            X509v3 Subject Key Identifier: 
                62:3B:AD:67:1A:17:AF:E2:12:3E:1E:1F:9E:A4:77:6C:F7:A7:97:CE
            X509v3 Authority Key Identifier: 
                keyid:5A:B5:A5:79:95:34:08:FB:4C:17:60:D3:92:88:E7:81:76:C6:B4:3D
                DirName:/C=SE/ST=Stockholm/L=Kista/O=RISE/O=Security Lab/OU=5GEnsure
                serial:B2:DC:A2:EA:37:CA:3A:E6

    Signature Algorithm: md5WithRSAEncryption
         c7:e2:ed:10:a2:8d:82:94:25:b9:35:6d:4c:f0:3c:c9:4e:83:
         7e:b8:f8:0b:cb:c6:37:dc:df:a4:e9:a5:c2:a2:97:3e:b3:b2:
         b2:89:5d:75:f9:f0:2f:33:e1:3b:48:54:75:be:5a:36:39:7d:
         19:70:be:22:4a:64:4c:c4:8d:37:5b:84:5d:77:51:f9:ec:ba:
         e8:63:fd:2e:45:a2:b1:ec:71:f4:ba:a2:d9:c0:2b:8f:95:ed:
         4f:6c:25:fd:99:ed:23:a0:5a:da:c5:95:b9:fe:97:e2:c8:1e:
         77:38:77:f2:4c:0c:fc:10:43:e5:b1:db:89:8d:74:92:e3:5c:
         fb:5f
-----BEGIN CERTIFICATE-----
MIIDdTCCAt6gAwIBAgIBdzANBgkqhkiG9w0BAQQFADBqMQswCQYDVQQGEwJTRTES
MBAGA1UECBMJU3RvY2tob2xtMQ4wDAYDVQQHEwVLaXN0YTENMAsGA1UEChMEUklT
RTEVMBMGA1UEChMMU2VjdXJpdHkgTGFiMREwDwYDVQQLEwg1R0Vuc3VyZTAeFw0x
OTA0MDQxNjA1NTNaFw0yMDA0MDMxNjA1NTNaMBYxFDASBgNVBAMTC29wZW52c3dp
dGNoMIIBIjANBgkqhkiG9w0BAQEFAAOCAQ8AMIIBCgKCAQEA2Vz+Fepmze1XGdJ+
XTdbpZNmwD+vY3LwQeZB4Xd/vPC8yXwOZZ0rczfdwXselaqKBDxzV5gkPCtXWwbs
3Vem74vqUXjO8Qx9YEFeKbte7CWFuN0QOQtH4qMcHn5M99jqmuCin2uCpYm8+Ibg
1sRwAaG1wE+yvTLPXj+hoGehJzTIUEte9jCXZiz1tDhAaE8/Xc3UfsdBK94jJ4Dh
e9bcuqqf8OBZxyBFDHVVyYlRgib9MJ0XF4Xz/SlKHJ62k7Xnm3V8a/dAV+LzcurN
DN9ws5ZCIhzYZNj+rr//U/Z0p6FzDk2OzDXvNqv/PKDzqp9q7jlW0O9BmNLXvrvR
h95qAwIDAQABo4H6MIH3MAkGA1UdEwQCMAAwLAYJYIZIAYb4QgENBB8WHU9wZW5T
U0wgR2VuZXJhdGVkIENlcnRpZmljYXRlMB0GA1UdDgQWBBRiO61nGhev4hI+Hh+e
pHds96eXzjCBnAYDVR0jBIGUMIGRgBRataV5lTQI+0wXYNOSiOeBdsa0PaFupGww
ajELMAkGA1UEBhMCU0UxEjAQBgNVBAgTCVN0b2NraG9sbTEOMAwGA1UEBxMFS2lz
dGExDTALBgNVBAoTBFJJU0UxFTATBgNVBAoTDFNlY3VyaXR5IExhYjERMA8GA1UE
CxMINUdFbnN1cmWCCQCy3KLqN8o65jANBgkqhkiG9w0BAQQFAAOBgQDH4u0Qoo2C
lCW5NW1M8DzJToN+uPgLy8Y33N+k6aXCopc+s7KyiV11+fAvM+E7SFR1vlo2OX0Z
cL4iSmRMxI03W4Rdd1H57LroY/0uRaKx7HH0uqLZwCuPle1PbCX9me0joFraxZW5
/pfiyB53OHfyTAz8EEPlsduJjXSS41z7Xw==
-----END CERTIFICATE-----
