Certificate:
    Data:
        Version: 3 (0x2)
        Serial Number: 123 (0x7b)
    Signature Algorithm: md5WithRSAEncryption
        Issuer: C=SE, ST=Stockholm, L=Kista, O=RISE, O=Security Lab, OU=5GEnsure
        Validity
            Not Before: Apr  4 16:07:11 2019 GMT
            Not After : Apr  3 16:07:11 2020 GMT
        Subject: CN=openvswitch
        Subject Public Key Info:
            Public Key Algorithm: rsaEncryption
                Public-Key: (2048 bit)
                Modulus:
                    00:d9:5c:fe:15:ea:66:cd:ed:57:19:d2:7e:5d:37:
                    5b:a5:93:66:c0:3f:af:63:72:f0:41:e6:41:e1:77:
                    7f:bc:f0:bc:c9:7c:0e:65:9d:2b:73:37:dd:c1:7b:
                    1e:95:aa:8a:04:3c:73:57:98:24:3c:2b:57:5b:06:
                    ec:dd:57:a6:ef:8b:ea:51:78:ce:f1:0c:7d:60:41:
                    5e:29:bb:5e:ec:25:85:b8:dd:10:39:0b:47:e2:a3:
                    1c:1e:7e:4c:f7:d8:ea:9a:e0:a2:9f:6b:82:a5:89:
                    bc:f8:86:e0:d6:c4:70:01:a1:b5:c0:4f:b2:bd:32:
                    cf:5e:3f:a1:a0:67:a1:27:34:c8:50:4b:5e:f6:30:
                    97:66:2c:f5:b4:38:40:68:4f:3f:5d:cd:d4:7e:c7:
                    41:2b:de:23:27:80:e1:7b:d6:dc:ba:aa:9f:f0:e0:
                    59:c7:20:45:0c:75:55:c9:89:51:82:26:fd:30:9d:
                    17:17:85:f3:fd:29:4a:1c:9e:b6:93:b5:e7:9b:75:
                    7c:6b:f7:40:57:e2:f3:72:ea:cd:0c:df:70:b3:96:
                    42:22:1c:d8:64:d8:fe:ae:bf:ff:53:f6:74:a7:a1:
                    73:0e:4d:8e:cc:35:ef:36:ab:ff:3c:a0:f3:aa:9f:
                    6a:ee:39:56:d0:ef:41:98:d2:d7:be:bb:d1:87:de:
                    6a:03
                Exponent: 65537 (0x10001)
        X509v3 extensions:
            X509v3 Basic Constraints: 
                CA:FALSE
            Netscape Comment: 
                OpenSSL Generated Certificate
            X509v3 Subject Key Identifier: 
                62:3B:AD:67:1A:17:AF:E2:12:3E:1E:1F:9E:A4:77:6C:F7:A7:97:CE
            X509v3 Authority Key Identifier: 
                keyid:5A:B5:A5:79:95:34:08:FB:4C:17:60:D3:92:88:E7:81:76:C6:B4:3D
                DirName:/C=SE/ST=Stockholm/L=Kista/O=RISE/O=Security Lab/OU=5GEnsure
                serial:B2:DC:A2:EA:37:CA:3A:E6

    Signature Algorithm: md5WithRSAEncryption
         00:da:24:ec:19:ec:a4:c9:da:98:4f:a8:11:3b:e3:52:37:81:
         aa:e5:bd:3e:11:fb:4c:74:16:97:f1:a6:36:a0:66:b6:55:c8:
         92:61:2c:dd:06:af:d0:04:59:31:b7:99:97:14:f6:50:ff:81:
         38:f7:f7:a1:e6:74:36:86:a8:e9:c1:0a:3d:62:5c:c2:6c:35:
         eb:5b:e8:5f:47:f1:e6:a9:cb:36:79:3d:31:b2:64:60:3b:f6:
         c1:ba:22:c4:11:16:b3:5d:e4:54:8a:f7:6f:d6:57:59:04:1b:
         68:40:74:ab:96:4b:aa:31:c5:23:a6:c8:81:5d:f4:45:dc:04:
         47:66
-----BEGIN CERTIFICATE-----
MIIDdTCCAt6gAwIBAgIBezANBgkqhkiG9w0BAQQFADBqMQswCQYDVQQGEwJTRTES
MBAGA1UECBMJU3RvY2tob2xtMQ4wDAYDVQQHEwVLaXN0YTENMAsGA1UEChMEUklT
RTEVMBMGA1UEChMMU2VjdXJpdHkgTGFiMREwDwYDVQQLEwg1R0Vuc3VyZTAeFw0x
OTA0MDQxNjA3MTFaFw0yMDA0MDMxNjA3MTFaMBYxFDASBgNVBAMTC29wZW52c3dp
dGNoMIIBIjANBgkqhkiG9w0BAQEFAAOCAQ8AMIIBCgKCAQEA2Vz+Fepmze1XGdJ+
XTdbpZNmwD+vY3LwQeZB4Xd/vPC8yXwOZZ0rczfdwXselaqKBDxzV5gkPCtXWwbs
3Vem74vqUXjO8Qx9YEFeKbte7CWFuN0QOQtH4qMcHn5M99jqmuCin2uCpYm8+Ibg
1sRwAaG1wE+yvTLPXj+hoGehJzTIUEte9jCXZiz1tDhAaE8/Xc3UfsdBK94jJ4Dh
e9bcuqqf8OBZxyBFDHVVyYlRgib9MJ0XF4Xz/SlKHJ62k7Xnm3V8a/dAV+LzcurN
DN9ws5ZCIhzYZNj+rr//U/Z0p6FzDk2OzDXvNqv/PKDzqp9q7jlW0O9BmNLXvrvR
h95qAwIDAQABo4H6MIH3MAkGA1UdEwQCMAAwLAYJYIZIAYb4QgENBB8WHU9wZW5T
U0wgR2VuZXJhdGVkIENlcnRpZmljYXRlMB0GA1UdDgQWBBRiO61nGhev4hI+Hh+e
pHds96eXzjCBnAYDVR0jBIGUMIGRgBRataV5lTQI+0wXYNOSiOeBdsa0PaFupGww
ajELMAkGA1UEBhMCU0UxEjAQBgNVBAgTCVN0b2NraG9sbTEOMAwGA1UEBxMFS2lz
dGExDTALBgNVBAoTBFJJU0UxFTATBgNVBAoTDFNlY3VyaXR5IExhYjERMA8GA1UE
CxMINUdFbnN1cmWCCQCy3KLqN8o65jANBgkqhkiG9w0BAQQFAAOBgQAA2iTsGeyk
ydqYT6gRO+NSN4Gq5b0+EftMdBaX8aY2oGa2VciSYSzdBq/QBFkxt5mXFPZQ/4E4
9/eh5nQ2hqjpwQo9YlzCbDXrW+hfR/Hmqcs2eT0xsmRgO/bBuiLEERazXeRUivdv
1ldZBBtoQHSrlkuqMcUjpsiBXfRF3ARHZg==
-----END CERTIFICATE-----
