Certificate:
    Data:
        Version: 3 (0x2)
        Serial Number: 127 (0x7f)
    Signature Algorithm: md5WithRSAEncryption
        Issuer: C=SE, ST=Stockholm, L=Kista, O=RISE, O=Security Lab, OU=5GEnsure
        Validity
            Not Before: Apr  4 16:09:47 2019 GMT
            Not After : Apr  3 16:09:47 2020 GMT
        Subject: CN=openvswitch
        Subject Public Key Info:
            Public Key Algorithm: rsaEncryption
                Public-Key: (2048 bit)
                Modulus:
                    00:f8:21:35:40:7c:32:bf:8f:d1:5c:28:d6:18:a7:
                    e1:12:c3:c9:95:0f:f6:08:da:4a:fd:fe:25:30:c4:
                    fd:b6:4f:34:36:eb:f0:4e:97:4a:71:32:3a:02:40:
                    7a:bd:d3:58:a9:e4:10:b5:cd:f1:24:a7:e1:7a:8d:
                    04:21:1c:10:3f:a4:46:97:27:d0:ef:5f:1c:a5:e2:
                    04:f9:5a:d2:0d:a0:55:48:41:e3:9d:ae:fc:11:2c:
                    ab:65:ed:95:00:dd:93:e6:99:5c:bd:7f:07:b0:3a:
                    53:89:34:91:6e:59:a0:50:57:e3:23:25:66:35:fd:
                    3d:fd:bb:fc:e4:46:29:b1:3b:01:5d:36:19:b5:0e:
                    e0:96:99:bf:2b:66:e6:d1:5d:6b:e8:31:a1:79:f7:
                    7b:e2:47:0f:35:8b:75:e3:62:1e:fa:43:97:a8:75:
                    db:85:d3:eb:62:bf:81:8f:22:a9:c9:57:d3:dc:1f:
                    2c:3b:24:7a:a4:72:bb:77:d2:a0:d3:1d:8d:d9:07:
                    86:5d:ab:25:f4:9f:68:94:46:6f:94:f7:be:6b:23:
                    85:7b:45:a5:ca:96:d8:c0:07:84:5f:92:32:34:59:
                    87:be:99:de:55:55:52:07:72:36:2d:67:20:08:59:
                    93:f7:46:ea:b6:0c:84:a6:b7:ab:bb:34:69:dd:bc:
                    ba:bd
                Exponent: 65537 (0x10001)
        X509v3 extensions:
            X509v3 Basic Constraints: 
                CA:FALSE
            Netscape Comment: 
                OpenSSL Generated Certificate
            X509v3 Subject Key Identifier: 
                59:F4:66:26:2A:F5:20:F8:66:EA:7C:A4:E1:C1:B6:6E:2A:02:E8:0D
            X509v3 Authority Key Identifier: 
                keyid:5A:B5:A5:79:95:34:08:FB:4C:17:60:D3:92:88:E7:81:76:C6:B4:3D
                DirName:/C=SE/ST=Stockholm/L=Kista/O=RISE/O=Security Lab/OU=5GEnsure
                serial:B2:DC:A2:EA:37:CA:3A:E6

    Signature Algorithm: md5WithRSAEncryption
         c4:82:e2:8c:ef:c0:31:96:93:ca:0c:68:c9:4b:bd:f5:52:e2:
         db:d4:cf:ff:fe:4f:9b:07:ac:ba:ba:95:42:b8:9e:88:5c:5c:
         71:40:d0:de:d4:63:05:a1:e3:b7:ae:0f:61:93:ce:f5:45:64:
         2b:fc:49:88:e4:86:ed:05:23:75:62:7a:75:bd:e1:4d:04:18:
         47:9f:b0:cf:4d:6e:bf:23:a9:54:7c:f2:b5:46:83:63:c7:f6:
         c1:ae:0b:74:35:b1:c2:d0:b8:3c:74:97:99:3f:35:b7:5b:e9:
         7e:84:ed:bd:6d:23:82:54:47:25:98:01:e5:31:21:4d:24:05:
         5a:cf
-----BEGIN CERTIFICATE-----
MIIDdTCCAt6gAwIBAgIBfzANBgkqhkiG9w0BAQQFADBqMQswCQYDVQQGEwJTRTES
MBAGA1UECBMJU3RvY2tob2xtMQ4wDAYDVQQHEwVLaXN0YTENMAsGA1UEChMEUklT
RTEVMBMGA1UEChMMU2VjdXJpdHkgTGFiMREwDwYDVQQLEwg1R0Vuc3VyZTAeFw0x
OTA0MDQxNjA5NDdaFw0yMDA0MDMxNjA5NDdaMBYxFDASBgNVBAMTC29wZW52c3dp
dGNoMIIBIjANBgkqhkiG9w0BAQEFAAOCAQ8AMIIBCgKCAQEA+CE1QHwyv4/RXCjW
GKfhEsPJlQ/2CNpK/f4lMMT9tk80NuvwTpdKcTI6AkB6vdNYqeQQtc3xJKfheo0E
IRwQP6RGlyfQ718cpeIE+VrSDaBVSEHjna78ESyrZe2VAN2T5plcvX8HsDpTiTSR
blmgUFfjIyVmNf09/bv85EYpsTsBXTYZtQ7glpm/K2bm0V1r6DGhefd74kcPNYt1
42Ie+kOXqHXbhdPrYr+BjyKpyVfT3B8sOyR6pHK7d9Kg0x2N2QeGXasl9J9olEZv
lPe+ayOFe0WlypbYwAeEX5IyNFmHvpneVVVSB3I2LWcgCFmT90bqtgyEpreruzRp
3by6vQIDAQABo4H6MIH3MAkGA1UdEwQCMAAwLAYJYIZIAYb4QgENBB8WHU9wZW5T
U0wgR2VuZXJhdGVkIENlcnRpZmljYXRlMB0GA1UdDgQWBBRZ9GYmKvUg+GbqfKTh
wbZuKgLoDTCBnAYDVR0jBIGUMIGRgBRataV5lTQI+0wXYNOSiOeBdsa0PaFupGww
ajELMAkGA1UEBhMCU0UxEjAQBgNVBAgTCVN0b2NraG9sbTEOMAwGA1UEBxMFS2lz
dGExDTALBgNVBAoTBFJJU0UxFTATBgNVBAoTDFNlY3VyaXR5IExhYjERMA8GA1UE
CxMINUdFbnN1cmWCCQCy3KLqN8o65jANBgkqhkiG9w0BAQQFAAOBgQDEguKM78Ax
lpPKDGjJS731UuLb1M///k+bB6y6upVCuJ6IXFxxQNDe1GMFoeO3rg9hk871RWQr
/EmI5IbtBSN1Ynp1veFNBBhHn7DPTW6/I6lUfPK1RoNjx/bBrgt0NbHC0Lg8dJeZ
PzW3W+l+hO29bSOCVEclmAHlMSFNJAVazw==
-----END CERTIFICATE-----
