Certificate:
    Data:
        Version: 3 (0x2)
        Serial Number: 128 (0x80)
    Signature Algorithm: md5WithRSAEncryption
        Issuer: C=SE, ST=Stockholm, L=Kista, O=RISE, O=Security Lab, OU=5GEnsure
        Validity
            Not Before: Apr  4 16:11:03 2019 GMT
            Not After : Apr  3 16:11:03 2020 GMT
        Subject: CN=openvswitch
        Subject Public Key Info:
            Public Key Algorithm: rsaEncryption
                Public-Key: (2048 bit)
                Modulus:
                    00:c8:d1:8c:e8:fa:90:5a:dc:74:d4:05:ea:6f:d9:
                    e7:1d:52:a7:ee:62:bc:b9:8e:e4:aa:4e:9f:e1:b3:
                    67:b1:c6:e5:d5:45:97:fc:cc:dd:39:72:53:2a:9d:
                    1c:c8:b8:be:1f:4d:0d:ae:2c:37:19:f5:35:41:8e:
                    4f:57:50:30:b8:98:ad:62:bf:4e:4a:54:8a:fe:2c:
                    04:cd:13:b2:48:50:ef:b7:f3:03:04:6b:6c:71:73:
                    cf:f0:10:b9:2b:2f:fe:91:3e:ac:1b:72:45:28:48:
                    43:fc:52:c0:57:39:e4:8b:e1:ae:71:8a:ee:33:bc:
                    f4:49:4e:d0:b9:bb:c5:36:0b:a8:f5:bb:8d:6f:70:
                    5b:5d:88:77:45:81:3f:b2:e8:c2:fb:7d:33:4d:84:
                    f8:ff:90:b4:74:3b:a3:70:c6:13:5d:6b:cc:16:18:
                    40:ea:2a:0d:b9:c3:9e:a3:82:3d:bb:3e:58:56:3e:
                    4b:f6:32:67:55:a1:7e:c0:81:83:35:59:72:2e:7e:
                    d0:84:29:3b:20:5a:d2:27:19:80:b8:73:7e:3b:66:
                    86:ca:05:4d:5c:70:a9:13:6e:e3:9a:ba:0a:9d:95:
                    02:db:6f:01:fe:36:a1:f9:bc:fa:fa:11:71:b4:e5:
                    11:15:8a:0a:69:05:1d:9e:5c:ab:14:ef:94:5f:43:
                    9a:f5
                Exponent: 65537 (0x10001)
        X509v3 extensions:
            X509v3 Basic Constraints: 
                CA:FALSE
            Netscape Comment: 
                OpenSSL Generated Certificate
            X509v3 Subject Key Identifier: 
                C8:1A:4B:96:9D:8B:0D:C4:AE:36:D2:B8:EE:AF:29:93:34:35:AF:9E
            X509v3 Authority Key Identifier: 
                keyid:5A:B5:A5:79:95:34:08:FB:4C:17:60:D3:92:88:E7:81:76:C6:B4:3D
                DirName:/C=SE/ST=Stockholm/L=Kista/O=RISE/O=Security Lab/OU=5GEnsure
                serial:B2:DC:A2:EA:37:CA:3A:E6

    Signature Algorithm: md5WithRSAEncryption
         04:d3:52:11:ce:f9:d4:5e:41:d4:5e:2d:11:82:5c:b6:87:a6:
         06:b2:bc:72:9f:d8:48:fb:e0:8f:8e:a4:cc:7d:29:64:50:a5:
         40:b6:6e:c7:b2:97:8b:09:31:93:a3:34:72:26:0b:9d:6b:05:
         68:74:d8:c8:fc:8d:f5:97:08:ff:86:b0:9f:14:64:7a:60:71:
         59:63:31:7e:f5:16:7e:9b:42:9f:d9:37:f6:bc:98:1f:2a:13:
         36:ce:6c:d3:19:86:5e:08:ba:49:0e:7e:d7:04:9b:61:fb:8b:
         13:fc:6a:fb:67:e7:a8:9f:e2:2e:cd:93:44:9d:1d:cd:c9:98:
         be:ee
-----BEGIN CERTIFICATE-----
MIIDdjCCAt+gAwIBAgICAIAwDQYJKoZIhvcNAQEEBQAwajELMAkGA1UEBhMCU0Ux
EjAQBgNVBAgTCVN0b2NraG9sbTEOMAwGA1UEBxMFS2lzdGExDTALBgNVBAoTBFJJ
U0UxFTATBgNVBAoTDFNlY3VyaXR5IExhYjERMA8GA1UECxMINUdFbnN1cmUwHhcN
MTkwNDA0MTYxMTAzWhcNMjAwNDAzMTYxMTAzWjAWMRQwEgYDVQQDEwtvcGVudnN3
aXRjaDCCASIwDQYJKoZIhvcNAQEBBQADggEPADCCAQoCggEBAMjRjOj6kFrcdNQF
6m/Z5x1Sp+5ivLmO5KpOn+GzZ7HG5dVFl/zM3TlyUyqdHMi4vh9NDa4sNxn1NUGO
T1dQMLiYrWK/TkpUiv4sBM0TskhQ77fzAwRrbHFzz/AQuSsv/pE+rBtyRShIQ/xS
wFc55IvhrnGK7jO89ElO0Lm7xTYLqPW7jW9wW12Id0WBP7Lowvt9M02E+P+QtHQ7
o3DGE11rzBYYQOoqDbnDnqOCPbs+WFY+S/YyZ1WhfsCBgzVZci5+0IQpOyBa0icZ
gLhzfjtmhsoFTVxwqRNu45q6Cp2VAttvAf42ofm8+voRcbTlERWKCmkFHZ5cqxTv
lF9DmvUCAwEAAaOB+jCB9zAJBgNVHRMEAjAAMCwGCWCGSAGG+EIBDQQfFh1PcGVu
U1NMIEdlbmVyYXRlZCBDZXJ0aWZpY2F0ZTAdBgNVHQ4EFgQUyBpLlp2LDcSuNtK4
7q8pkzQ1r54wgZwGA1UdIwSBlDCBkYAUWrWleZU0CPtMF2DTkojngXbGtD2hbqRs
MGoxCzAJBgNVBAYTAlNFMRIwEAYDVQQIEwlTdG9ja2hvbG0xDjAMBgNVBAcTBUtp
c3RhMQ0wCwYDVQQKEwRSSVNFMRUwEwYDVQQKEwxTZWN1cml0eSBMYWIxETAPBgNV
BAsTCDVHRW5zdXJlggkAstyi6jfKOuYwDQYJKoZIhvcNAQEEBQADgYEABNNSEc75
1F5B1F4tEYJctoemBrK8cp/YSPvgj46kzH0pZFClQLZux7KXiwkxk6M0ciYLnWsF
aHTYyPyN9ZcI/4awnxRkemBxWWMxfvUWfptCn9k39ryYHyoTNs5s0xmGXgi6SQ5+
1wSbYfuLE/xq+2fnqJ/iLs2TRJ0dzcmYvu4=
-----END CERTIFICATE-----
