Certificate:
    Data:
        Version: 3 (0x2)
        Serial Number: 138 (0x8a)
    Signature Algorithm: md5WithRSAEncryption
        Issuer: C=SE, ST=Stockholm, L=Kista, O=RISE, O=Security Lab, OU=5GEnsure
        Validity
            Not Before: Apr  4 16:22:37 2019 GMT
            Not After : Apr  3 16:22:37 2020 GMT
        Subject: CN=openvswitch
        Subject Public Key Info:
            Public Key Algorithm: rsaEncryption
                Public-Key: (2048 bit)
                Modulus:
                    00:9e:3a:64:ac:d2:c9:96:df:cd:97:2d:64:2d:c1:
                    a9:3d:84:9f:ad:6a:e5:87:0d:9f:5e:d3:89:dc:3c:
                    22:33:c0:07:1e:9c:39:44:a8:f0:68:a8:0f:3d:d4:
                    5d:3b:77:01:f6:ba:42:c3:ff:55:c0:46:98:58:b7:
                    d8:8f:c4:79:86:4d:df:71:65:bf:d5:8a:94:03:ef:
                    52:56:94:98:0c:21:85:4b:57:96:76:77:10:5b:ff:
                    34:db:1a:c9:d5:35:7c:23:18:db:16:d4:ac:87:89:
                    94:8e:18:fe:d7:57:cc:83:cf:c8:c8:32:03:13:45:
                    a1:15:57:9f:db:7c:7b:93:a1:c9:b2:fa:ba:bc:78:
                    6a:81:ba:3e:f8:43:01:c2:a3:97:0d:ce:f1:09:49:
                    a8:75:3c:8c:a4:75:7f:25:d5:66:cc:6b:47:70:12:
                    11:0d:ab:e3:b3:82:49:9b:cc:10:69:3b:ee:29:35:
                    30:5a:78:d5:c3:45:98:47:b6:68:88:15:af:44:03:
                    55:d0:11:2d:60:88:13:75:9f:19:26:2f:05:b4:04:
                    94:9e:50:90:64:3f:7b:99:1b:81:b0:d1:4b:cc:a6:
                    af:57:6e:df:11:50:5c:e5:bb:45:f0:2c:07:d8:9d:
                    a9:b8:51:4b:ce:9d:73:76:24:d5:59:19:d4:2d:c7:
                    e9:91
                Exponent: 65537 (0x10001)
        X509v3 extensions:
            X509v3 Basic Constraints: 
                CA:FALSE
            Netscape Comment: 
                OpenSSL Generated Certificate
            X509v3 Subject Key Identifier: 
                5C:43:F1:2C:02:76:2E:84:24:2D:74:8B:CF:C0:A1:F7:61:2A:3B:42
            X509v3 Authority Key Identifier: 
                keyid:5A:B5:A5:79:95:34:08:FB:4C:17:60:D3:92:88:E7:81:76:C6:B4:3D
                DirName:/C=SE/ST=Stockholm/L=Kista/O=RISE/O=Security Lab/OU=5GEnsure
                serial:B2:DC:A2:EA:37:CA:3A:E6

    Signature Algorithm: md5WithRSAEncryption
         9a:e1:09:7b:03:1b:2b:ed:2b:ec:c9:07:d8:54:8d:bd:20:cc:
         c3:95:34:9b:40:63:66:4b:86:4d:02:fc:b5:8d:3e:eb:33:1f:
         67:63:39:4d:01:12:83:00:f6:84:05:c4:9c:44:62:bb:77:f1:
         96:b4:eb:2c:c1:b2:9d:48:b3:3d:59:30:d2:96:c2:42:ae:f1:
         89:6b:4b:48:35:b7:8a:cd:84:36:cc:5a:11:41:b9:80:34:69:
         0f:44:ab:58:30:40:ec:9d:41:1d:7e:92:de:ec:6c:e9:f1:f0:
         3b:5a:51:12:ad:ab:74:c6:d9:5b:68:f8:dc:a3:5f:81:51:20:
         37:4a
-----BEGIN CERTIFICATE-----
MIIDdjCCAt+gAwIBAgICAIowDQYJKoZIhvcNAQEEBQAwajELMAkGA1UEBhMCU0Ux
EjAQBgNVBAgTCVN0b2NraG9sbTEOMAwGA1UEBxMFS2lzdGExDTALBgNVBAoTBFJJ
U0UxFTATBgNVBAoTDFNlY3VyaXR5IExhYjERMA8GA1UECxMINUdFbnN1cmUwHhcN
MTkwNDA0MTYyMjM3WhcNMjAwNDAzMTYyMjM3WjAWMRQwEgYDVQQDEwtvcGVudnN3
aXRjaDCCASIwDQYJKoZIhvcNAQEBBQADggEPADCCAQoCggEBAJ46ZKzSyZbfzZct
ZC3BqT2En61q5YcNn17Tidw8IjPABx6cOUSo8GioDz3UXTt3Afa6QsP/VcBGmFi3
2I/EeYZN33Flv9WKlAPvUlaUmAwhhUtXlnZ3EFv/NNsaydU1fCMY2xbUrIeJlI4Y
/tdXzIPPyMgyAxNFoRVXn9t8e5OhybL6urx4aoG6PvhDAcKjlw3O8QlJqHU8jKR1
fyXVZsxrR3ASEQ2r47OCSZvMEGk77ik1MFp41cNFmEe2aIgVr0QDVdARLWCIE3Wf
GSYvBbQElJ5QkGQ/e5kbgbDRS8ymr1du3xFQXOW7RfAsB9idqbhRS86dc3Yk1VkZ
1C3H6ZECAwEAAaOB+jCB9zAJBgNVHRMEAjAAMCwGCWCGSAGG+EIBDQQfFh1PcGVu
U1NMIEdlbmVyYXRlZCBDZXJ0aWZpY2F0ZTAdBgNVHQ4EFgQUXEPxLAJ2LoQkLXSL
z8Ch92EqO0IwgZwGA1UdIwSBlDCBkYAUWrWleZU0CPtMF2DTkojngXbGtD2hbqRs
MGoxCzAJBgNVBAYTAlNFMRIwEAYDVQQIEwlTdG9ja2hvbG0xDjAMBgNVBAcTBUtp
c3RhMQ0wCwYDVQQKEwRSSVNFMRUwEwYDVQQKEwxTZWN1cml0eSBMYWIxETAPBgNV
BAsTCDVHRW5zdXJlggkAstyi6jfKOuYwDQYJKoZIhvcNAQEEBQADgYEAmuEJewMb
K+0r7MkH2FSNvSDMw5U0m0BjZkuGTQL8tY0+6zMfZ2M5TQESgwD2hAXEnERiu3fx
lrTrLMGynUizPVkw0pbCQq7xiWtLSDW3is2ENsxaEUG5gDRpD0SrWDBA7J1BHX6S
3uxs6fHwO1pREq2rdMbZW2j43KNfgVEgN0o=
-----END CERTIFICATE-----
