Certificate:
    Data:
        Version: 3 (0x2)
        Serial Number: 141 (0x8d)
    Signature Algorithm: md5WithRSAEncryption
        Issuer: C=SE, ST=Stockholm, L=Kista, O=RISE, O=Security Lab, OU=5GEnsure
        Validity
            Not Before: Apr  4 16:22:43 2019 GMT
            Not After : Apr  3 16:22:43 2020 GMT
        Subject: CN=openvswitch
        Subject Public Key Info:
            Public Key Algorithm: rsaEncryption
                Public-Key: (2048 bit)
                Modulus:
                    00:9e:3a:64:ac:d2:c9:96:df:cd:97:2d:64:2d:c1:
                    a9:3d:84:9f:ad:6a:e5:87:0d:9f:5e:d3:89:dc:3c:
                    22:33:c0:07:1e:9c:39:44:a8:f0:68:a8:0f:3d:d4:
                    5d:3b:77:01:f6:ba:42:c3:ff:55:c0:46:98:58:b7:
                    d8:8f:c4:79:86:4d:df:71:65:bf:d5:8a:94:03:ef:
                    52:56:94:98:0c:21:85:4b:57:96:76:77:10:5b:ff:
                    34:db:1a:c9:d5:35:7c:23:18:db:16:d4:ac:87:89:
                    94:8e:18:fe:d7:57:cc:83:cf:c8:c8:32:03:13:45:
                    a1:15:57:9f:db:7c:7b:93:a1:c9:b2:fa:ba:bc:78:
                    6a:81:ba:3e:f8:43:01:c2:a3:97:0d:ce:f1:09:49:
                    a8:75:3c:8c:a4:75:7f:25:d5:66:cc:6b:47:70:12:
                    11:0d:ab:e3:b3:82:49:9b:cc:10:69:3b:ee:29:35:
                    30:5a:78:d5:c3:45:98:47:b6:68:88:15:af:44:03:
                    55:d0:11:2d:60:88:13:75:9f:19:26:2f:05:b4:04:
                    94:9e:50:90:64:3f:7b:99:1b:81:b0:d1:4b:cc:a6:
                    af:57:6e:df:11:50:5c:e5:bb:45:f0:2c:07:d8:9d:
                    a9:b8:51:4b:ce:9d:73:76:24:d5:59:19:d4:2d:c7:
                    e9:91
                Exponent: 65537 (0x10001)
        X509v3 extensions:
            X509v3 Basic Constraints: 
                CA:FALSE
            Netscape Comment: 
                OpenSSL Generated Certificate
            X509v3 Subject Key Identifier: 
                5C:43:F1:2C:02:76:2E:84:24:2D:74:8B:CF:C0:A1:F7:61:2A:3B:42
            X509v3 Authority Key Identifier: 
                keyid:5A:B5:A5:79:95:34:08:FB:4C:17:60:D3:92:88:E7:81:76:C6:B4:3D
                DirName:/C=SE/ST=Stockholm/L=Kista/O=RISE/O=Security Lab/OU=5GEnsure
                serial:B2:DC:A2:EA:37:CA:3A:E6

    Signature Algorithm: md5WithRSAEncryption
         ba:50:62:57:c6:9f:3c:7a:80:61:a5:25:4f:e5:69:ad:d9:39:
         91:b7:b1:45:20:eb:ea:8b:65:f1:57:36:08:f3:da:66:c6:e0:
         ad:a6:b1:0f:38:f6:4f:c0:bc:cf:8c:0d:50:a5:28:c3:b0:54:
         75:27:e9:9a:e7:ed:d2:3b:52:ec:ee:93:fe:ed:7b:67:4c:b3:
         9b:79:4e:f3:38:4c:29:79:18:7b:e8:98:d7:bb:e6:9f:7e:52:
         25:de:98:a0:21:68:21:e5:63:68:21:64:ed:2c:16:35:ee:d3:
         8f:17:77:03:bc:3e:52:cb:bb:7b:c4:f5:62:79:e7:10:ec:b7:
         34:9c
-----BEGIN CERTIFICATE-----
MIIDdjCCAt+gAwIBAgICAI0wDQYJKoZIhvcNAQEEBQAwajELMAkGA1UEBhMCU0Ux
EjAQBgNVBAgTCVN0b2NraG9sbTEOMAwGA1UEBxMFS2lzdGExDTALBgNVBAoTBFJJ
U0UxFTATBgNVBAoTDFNlY3VyaXR5IExhYjERMA8GA1UECxMINUdFbnN1cmUwHhcN
MTkwNDA0MTYyMjQzWhcNMjAwNDAzMTYyMjQzWjAWMRQwEgYDVQQDEwtvcGVudnN3
aXRjaDCCASIwDQYJKoZIhvcNAQEBBQADggEPADCCAQoCggEBAJ46ZKzSyZbfzZct
ZC3BqT2En61q5YcNn17Tidw8IjPABx6cOUSo8GioDz3UXTt3Afa6QsP/VcBGmFi3
2I/EeYZN33Flv9WKlAPvUlaUmAwhhUtXlnZ3EFv/NNsaydU1fCMY2xbUrIeJlI4Y
/tdXzIPPyMgyAxNFoRVXn9t8e5OhybL6urx4aoG6PvhDAcKjlw3O8QlJqHU8jKR1
fyXVZsxrR3ASEQ2r47OCSZvMEGk77ik1MFp41cNFmEe2aIgVr0QDVdARLWCIE3Wf
GSYvBbQElJ5QkGQ/e5kbgbDRS8ymr1du3xFQXOW7RfAsB9idqbhRS86dc3Yk1VkZ
1C3H6ZECAwEAAaOB+jCB9zAJBgNVHRMEAjAAMCwGCWCGSAGG+EIBDQQfFh1PcGVu
U1NMIEdlbmVyYXRlZCBDZXJ0aWZpY2F0ZTAdBgNVHQ4EFgQUXEPxLAJ2LoQkLXSL
z8Ch92EqO0IwgZwGA1UdIwSBlDCBkYAUWrWleZU0CPtMF2DTkojngXbGtD2hbqRs
MGoxCzAJBgNVBAYTAlNFMRIwEAYDVQQIEwlTdG9ja2hvbG0xDjAMBgNVBAcTBUtp
c3RhMQ0wCwYDVQQKEwRSSVNFMRUwEwYDVQQKEwxTZWN1cml0eSBMYWIxETAPBgNV
BAsTCDVHRW5zdXJlggkAstyi6jfKOuYwDQYJKoZIhvcNAQEEBQADgYEAulBiV8af
PHqAYaUlT+Vprdk5kbexRSDr6otl8Vc2CPPaZsbgraaxDzj2T8C8z4wNUKUow7BU
dSfpmuft0jtS7O6T/u17Z0yzm3lO8zhMKXkYe+iY17vmn35SJd6YoCFoIeVjaCFk
7SwWNe7Tjxd3A7w+Usu7e8T1YnnnEOy3NJw=
-----END CERTIFICATE-----
