Certificate:
    Data:
        Version: 3 (0x2)
        Serial Number: 158 (0x9e)
    Signature Algorithm: md5WithRSAEncryption
        Issuer: C=SE, ST=Stockholm, L=Kista, O=RISE, O=Security Lab, OU=5GEnsure
        Validity
            Not Before: Apr  4 19:06:05 2019 GMT
            Not After : Apr  3 19:06:05 2020 GMT
        Subject: CN=openvswitch
        Subject Public Key Info:
            Public Key Algorithm: rsaEncryption
                Public-Key: (2048 bit)
                Modulus:
                    00:b1:ff:b5:7c:e1:20:b4:87:ff:70:57:65:86:e6:
                    91:d8:19:da:dd:76:9b:7b:a6:ce:93:7e:9c:ce:06:
                    bd:06:21:3e:ce:c8:7a:09:53:87:27:c0:03:fa:e5:
                    45:4b:3b:25:5c:0e:d9:0f:5e:88:12:49:29:cb:a2:
                    f9:42:33:07:51:94:d0:8a:69:34:d7:53:53:75:19:
                    7a:be:f7:69:b0:54:49:18:fe:42:04:8e:fc:41:c6:
                    d7:9e:84:b4:14:e0:fb:93:f2:99:fe:89:72:dd:98:
                    ae:9e:0c:7d:c3:eb:1c:78:06:92:b8:92:c8:0b:ee:
                    87:1d:fc:a5:86:f8:ca:ae:6a:70:98:36:76:5c:1a:
                    aa:60:d7:3a:db:7d:cc:60:4b:ad:f4:e6:ec:44:d4:
                    15:52:50:bd:be:29:0b:9f:2d:f5:99:a5:b7:b1:79:
                    25:da:ac:44:00:00:1f:ba:fc:5d:42:73:96:06:af:
                    3a:1d:d1:e3:20:f4:c2:0b:19:65:e4:d0:ca:1f:04:
                    9b:0c:69:28:7f:92:9c:23:60:b9:04:33:b2:af:ed:
                    e7:ff:a7:31:3c:d6:57:3c:e0:e8:98:21:50:cd:4d:
                    32:39:2e:58:a7:c7:9f:34:70:7f:fc:ba:ca:2f:1e:
                    73:ee:23:47:1b:ed:f0:72:36:35:7e:65:3f:36:31:
                    6d:29
                Exponent: 65537 (0x10001)
        X509v3 extensions:
            X509v3 Basic Constraints: 
                CA:FALSE
            Netscape Comment: 
                OpenSSL Generated Certificate
            X509v3 Subject Key Identifier: 
                91:BB:51:84:55:85:00:D6:D3:BF:47:AF:1A:EB:D0:66:00:F0:26:58
            X509v3 Authority Key Identifier: 
                keyid:5A:B5:A5:79:95:34:08:FB:4C:17:60:D3:92:88:E7:81:76:C6:B4:3D
                DirName:/C=SE/ST=Stockholm/L=Kista/O=RISE/O=Security Lab/OU=5GEnsure
                serial:B2:DC:A2:EA:37:CA:3A:E6

    Signature Algorithm: md5WithRSAEncryption
         45:7c:ce:60:f5:f4:26:2d:0a:03:25:d1:b2:df:f3:f8:08:e4:
         07:c3:d7:f0:36:0f:65:2f:50:48:47:6f:5c:1f:0a:4a:8f:48:
         4a:9a:38:cc:ec:cd:ce:ec:37:59:d0:eb:e1:ae:af:91:e6:61:
         d1:a1:98:52:91:cd:5b:c7:96:df:d9:16:6a:ca:09:08:e2:79:
         8c:88:38:90:57:6a:2a:88:a2:e2:59:8a:ca:a8:25:6e:8a:c9:
         fe:23:d3:1b:08:34:47:00:62:e6:58:92:22:60:f8:24:07:0b:
         ce:84:ed:61:24:8d:09:14:d7:b7:23:ba:9c:f0:2b:c8:ce:fc:
         ae:97
-----BEGIN CERTIFICATE-----
MIIDdjCCAt+gAwIBAgICAJ4wDQYJKoZIhvcNAQEEBQAwajELMAkGA1UEBhMCU0Ux
EjAQBgNVBAgTCVN0b2NraG9sbTEOMAwGA1UEBxMFS2lzdGExDTALBgNVBAoTBFJJ
U0UxFTATBgNVBAoTDFNlY3VyaXR5IExhYjERMA8GA1UECxMINUdFbnN1cmUwHhcN
MTkwNDA0MTkwNjA1WhcNMjAwNDAzMTkwNjA1WjAWMRQwEgYDVQQDEwtvcGVudnN3
aXRjaDCCASIwDQYJKoZIhvcNAQEBBQADggEPADCCAQoCggEBALH/tXzhILSH/3BX
ZYbmkdgZ2t12m3umzpN+nM4GvQYhPs7IeglThyfAA/rlRUs7JVwO2Q9eiBJJKcui
+UIzB1GU0IppNNdTU3UZer73abBUSRj+QgSO/EHG156EtBTg+5Pymf6Jct2Yrp4M
fcPrHHgGkriSyAvuhx38pYb4yq5qcJg2dlwaqmDXOtt9zGBLrfTm7ETUFVJQvb4p
C58t9Zmlt7F5JdqsRAAAH7r8XUJzlgavOh3R4yD0wgsZZeTQyh8EmwxpKH+SnCNg
uQQzsq/t5/+nMTzWVzzg6JghUM1NMjkuWKfHnzRwf/y6yi8ec+4jRxvt8HI2NX5l
PzYxbSkCAwEAAaOB+jCB9zAJBgNVHRMEAjAAMCwGCWCGSAGG+EIBDQQfFh1PcGVu
U1NMIEdlbmVyYXRlZCBDZXJ0aWZpY2F0ZTAdBgNVHQ4EFgQUkbtRhFWFANbTv0ev
GuvQZgDwJlgwgZwGA1UdIwSBlDCBkYAUWrWleZU0CPtMF2DTkojngXbGtD2hbqRs
MGoxCzAJBgNVBAYTAlNFMRIwEAYDVQQIEwlTdG9ja2hvbG0xDjAMBgNVBAcTBUtp
c3RhMQ0wCwYDVQQKEwRSSVNFMRUwEwYDVQQKEwxTZWN1cml0eSBMYWIxETAPBgNV
BAsTCDVHRW5zdXJlggkAstyi6jfKOuYwDQYJKoZIhvcNAQEEBQADgYEARXzOYPX0
Ji0KAyXRst/z+AjkB8PX8DYPZS9QSEdvXB8KSo9ISpo4zOzNzuw3WdDr4a6vkeZh
0aGYUpHNW8eW39kWasoJCOJ5jIg4kFdqKoii4lmKyqglborJ/iPTGwg0RwBi5liS
ImD4JAcLzoTtYSSNCRTXtyO6nPAryM78rpc=
-----END CERTIFICATE-----
