Certificate:
    Data:
        Version: 3 (0x2)
        Serial Number: 159 (0x9f)
    Signature Algorithm: md5WithRSAEncryption
        Issuer: C=SE, ST=Stockholm, L=Kista, O=RISE, O=Security Lab, OU=5GEnsure
        Validity
            Not Before: Apr  5 07:28:20 2019 GMT
            Not After : Apr  4 07:28:20 2020 GMT
        Subject: CN=openvswitch
        Subject Public Key Info:
            Public Key Algorithm: rsaEncryption
                Public-Key: (2048 bit)
                Modulus:
                    00:db:33:66:ad:f6:7f:68:e2:c5:00:b2:31:b2:b5:
                    eb:fd:95:ba:4c:63:9a:3a:0d:2a:de:22:43:cf:7d:
                    d1:85:e5:20:2e:2f:71:21:6b:79:ca:8e:e1:50:b2:
                    02:8e:b4:b3:6e:41:f4:96:88:c2:ca:bf:77:ee:6f:
                    af:22:71:02:f0:2f:67:3c:29:ab:64:ea:27:62:cd:
                    84:9d:ca:93:2c:1a:bb:dc:90:c6:34:67:56:22:0c:
                    e4:47:69:10:b5:54:13:88:aa:b0:04:84:11:f3:4f:
                    83:e3:05:86:c4:fb:57:5b:7e:d9:43:dc:da:41:16:
                    e4:33:36:18:1c:90:9c:4e:8b:62:1f:74:64:cc:20:
                    33:80:76:4f:90:84:d1:eb:96:1f:25:19:89:3a:a8:
                    99:c5:ba:ad:5d:ed:1a:8b:d8:cc:76:08:16:f8:51:
                    99:2d:11:b3:64:cc:60:8c:88:a2:2d:72:7c:71:ea:
                    a1:69:2d:27:84:16:ed:a8:e6:cd:ef:9d:43:6a:af:
                    4a:76:33:55:7d:ec:7e:a2:7f:b8:66:1a:a9:4b:38:
                    da:67:1b:4d:b6:19:a2:dc:05:46:d4:4d:ab:66:34:
                    61:d0:bd:75:ad:b0:5f:0d:76:dc:3e:f3:90:2e:88:
                    27:48:df:4a:56:a4:8c:b8:57:c2:e4:b6:b1:39:62:
                    c6:3d
                Exponent: 65537 (0x10001)
        X509v3 extensions:
            X509v3 Basic Constraints: 
                CA:FALSE
            Netscape Comment: 
                OpenSSL Generated Certificate
            X509v3 Subject Key Identifier: 
                26:D5:36:4E:80:98:CB:3B:98:23:C4:44:D2:66:3A:8D:4E:BD:34:EA
            X509v3 Authority Key Identifier: 
                keyid:5A:B5:A5:79:95:34:08:FB:4C:17:60:D3:92:88:E7:81:76:C6:B4:3D
                DirName:/C=SE/ST=Stockholm/L=Kista/O=RISE/O=Security Lab/OU=5GEnsure
                serial:B2:DC:A2:EA:37:CA:3A:E6

    Signature Algorithm: md5WithRSAEncryption
         62:5c:b9:bb:d8:4a:fc:25:a2:c1:6d:24:8c:43:14:c1:04:43:
         97:c0:da:ec:00:27:d2:3d:c2:4e:25:2d:36:87:21:f4:39:5a:
         23:68:a5:3e:9f:74:40:4e:d2:8a:d6:33:c2:00:f9:3d:b5:fe:
         5f:4c:f3:3b:25:27:db:5c:4f:a1:b3:ce:ed:bf:63:05:82:5a:
         3e:79:84:a8:f0:a9:fc:de:fa:5f:5a:ab:7d:ef:a1:d9:7d:a9:
         95:3f:c9:05:aa:7e:9f:c9:18:e5:2c:34:32:4e:6d:4a:93:f5:
         02:e7:b2:61:ab:9b:67:1c:50:8a:03:ea:7f:8d:31:94:94:8d:
         d2:67
-----BEGIN CERTIFICATE-----
MIIDdjCCAt+gAwIBAgICAJ8wDQYJKoZIhvcNAQEEBQAwajELMAkGA1UEBhMCU0Ux
EjAQBgNVBAgTCVN0b2NraG9sbTEOMAwGA1UEBxMFS2lzdGExDTALBgNVBAoTBFJJ
U0UxFTATBgNVBAoTDFNlY3VyaXR5IExhYjERMA8GA1UECxMINUdFbnN1cmUwHhcN
MTkwNDA1MDcyODIwWhcNMjAwNDA0MDcyODIwWjAWMRQwEgYDVQQDEwtvcGVudnN3
aXRjaDCCASIwDQYJKoZIhvcNAQEBBQADggEPADCCAQoCggEBANszZq32f2jixQCy
MbK16/2VukxjmjoNKt4iQ8990YXlIC4vcSFrecqO4VCyAo60s25B9JaIwsq/d+5v
ryJxAvAvZzwpq2TqJ2LNhJ3Kkywau9yQxjRnViIM5EdpELVUE4iqsASEEfNPg+MF
hsT7V1t+2UPc2kEW5DM2GByQnE6LYh90ZMwgM4B2T5CE0euWHyUZiTqomcW6rV3t
GovYzHYIFvhRmS0Rs2TMYIyIoi1yfHHqoWktJ4QW7ajmze+dQ2qvSnYzVX3sfqJ/
uGYaqUs42mcbTbYZotwFRtRNq2Y0YdC9da2wXw123D7zkC6IJ0jfSlakjLhXwuS2
sTlixj0CAwEAAaOB+jCB9zAJBgNVHRMEAjAAMCwGCWCGSAGG+EIBDQQfFh1PcGVu
U1NMIEdlbmVyYXRlZCBDZXJ0aWZpY2F0ZTAdBgNVHQ4EFgQUJtU2ToCYyzuYI8RE
0mY6jU69NOowgZwGA1UdIwSBlDCBkYAUWrWleZU0CPtMF2DTkojngXbGtD2hbqRs
MGoxCzAJBgNVBAYTAlNFMRIwEAYDVQQIEwlTdG9ja2hvbG0xDjAMBgNVBAcTBUtp
c3RhMQ0wCwYDVQQKEwRSSVNFMRUwEwYDVQQKEwxTZWN1cml0eSBMYWIxETAPBgNV
BAsTCDVHRW5zdXJlggkAstyi6jfKOuYwDQYJKoZIhvcNAQEEBQADgYEAYly5u9hK
/CWiwW0kjEMUwQRDl8Da7AAn0j3CTiUtNoch9DlaI2ilPp90QE7SitYzwgD5PbX+
X0zzOyUn21xPobPO7b9jBYJaPnmEqPCp/N76X1qrfe+h2X2plT/JBap+n8kY5Sw0
Mk5tSpP1AueyYaubZxxQigPqf40xlJSN0mc=
-----END CERTIFICATE-----
