Certificate:
    Data:
        Version: 3 (0x2)
        Serial Number: 160 (0xa0)
    Signature Algorithm: md5WithRSAEncryption
        Issuer: C=SE, ST=Stockholm, L=Kista, O=RISE, O=Security Lab, OU=5GEnsure
        Validity
            Not Before: Apr  5 08:14:35 2019 GMT
            Not After : Apr  4 08:14:35 2020 GMT
        Subject: CN=openvswitch
        Subject Public Key Info:
            Public Key Algorithm: rsaEncryption
                Public-Key: (2048 bit)
                Modulus:
                    00:a6:2c:06:2f:6c:7d:ae:ac:da:0f:0f:de:2e:3d:
                    66:27:eb:95:0c:b0:e3:b0:19:32:28:e7:89:90:25:
                    88:47:33:e6:ca:98:e8:2b:91:6f:69:67:5a:34:d7:
                    fe:03:30:92:22:1a:be:53:f8:52:56:01:ac:95:33:
                    b8:ba:27:d0:28:31:05:9f:6f:47:51:b8:a6:5f:9c:
                    52:98:f2:27:98:d6:de:95:b7:55:f5:c5:39:45:cd:
                    06:c8:6a:6d:d5:4e:b6:2f:f2:52:ee:4b:b3:9d:0f:
                    fd:7e:7f:b6:0e:23:3c:b6:df:ba:ab:87:62:05:d3:
                    fa:62:8c:3f:6b:60:a4:d0:b1:4f:ae:a7:e6:08:6a:
                    41:ba:cc:aa:7b:dd:a7:2d:a5:57:65:c9:29:ff:fd:
                    21:fd:14:3d:b9:32:53:8d:87:9b:8c:c6:81:86:cd:
                    e2:18:28:69:ce:b2:4d:50:d2:2c:ae:a7:c6:65:33:
                    52:94:46:ac:11:5a:f5:dd:67:7f:c8:db:79:a9:13:
                    0e:f7:54:55:3d:db:66:cd:79:c3:47:15:fc:4c:04:
                    2a:44:f2:11:4e:2a:e0:5e:54:21:f6:e7:9f:6c:85:
                    ff:53:dc:42:8a:c2:aa:c6:bd:4a:94:b8:ee:88:20:
                    08:7f:b5:4e:52:57:44:e8:86:8a:e3:27:94:cf:eb:
                    a1:3d
                Exponent: 65537 (0x10001)
        X509v3 extensions:
            X509v3 Basic Constraints: 
                CA:FALSE
            Netscape Comment: 
                OpenSSL Generated Certificate
            X509v3 Subject Key Identifier: 
                BA:A2:2C:93:BB:DF:0A:42:78:CE:94:F5:8B:5C:AC:83:5B:45:C7:8A
            X509v3 Authority Key Identifier: 
                keyid:A5:CD:37:29:32:35:76:57:61:C7:9A:EB:8A:A1:2E:88:E4:1B:16:FA
                DirName:/C=SE/ST=Stockholm/L=Kista/O=RISE/O=Security Lab/OU=5GEnsure
                serial:CE:84:F7:04:DD:E4:8B:3A

    Signature Algorithm: md5WithRSAEncryption
         0d:c7:2f:e1:0c:37:a4:81:f6:1c:b7:68:0c:20:d5:5f:00:10:
         08:fd:88:0f:32:93:ed:47:2f:f2:37:a0:9c:ec:86:70:cd:d8:
         fa:3e:78:c8:67:73:70:c1:c3:b0:46:1c:7b:2d:6a:c2:09:72:
         87:70:68:14:f7:8d:5c:da:52:14:09:0d:40:aa:c0:10:e3:f5:
         b6:5e:38:5b:3e:45:9b:e6:c6:f3:40:23:76:6f:5f:14:67:6e:
         c3:46:92:12:10:71:1d:71:5a:fe:f8:85:e5:05:af:ec:da:14:
         70:b8:36:a0:b0:c6:c6:d7:8a:f1:53:13:8e:04:c7:84:85:f1:
         c9:fb
-----BEGIN CERTIFICATE-----
MIIDdjCCAt+gAwIBAgICAKAwDQYJKoZIhvcNAQEEBQAwajELMAkGA1UEBhMCU0Ux
EjAQBgNVBAgTCVN0b2NraG9sbTEOMAwGA1UEBxMFS2lzdGExDTALBgNVBAoTBFJJ
U0UxFTATBgNVBAoTDFNlY3VyaXR5IExhYjERMA8GA1UECxMINUdFbnN1cmUwHhcN
MTkwNDA1MDgxNDM1WhcNMjAwNDA0MDgxNDM1WjAWMRQwEgYDVQQDEwtvcGVudnN3
aXRjaDCCASIwDQYJKoZIhvcNAQEBBQADggEPADCCAQoCggEBAKYsBi9sfa6s2g8P
3i49ZifrlQyw47AZMijniZAliEcz5sqY6CuRb2lnWjTX/gMwkiIavlP4UlYBrJUz
uLon0CgxBZ9vR1G4pl+cUpjyJ5jW3pW3VfXFOUXNBshqbdVOti/yUu5Ls50P/X5/
tg4jPLbfuquHYgXT+mKMP2tgpNCxT66n5ghqQbrMqnvdpy2lV2XJKf/9If0UPbky
U42Hm4zGgYbN4hgoac6yTVDSLK6nxmUzUpRGrBFa9d1nf8jbeakTDvdUVT3bZs15
w0cV/EwEKkTyEU4q4F5UIfbnn2yF/1PcQorCqsa9SpS47oggCH+1TlJXROiGiuMn
lM/roT0CAwEAAaOB+jCB9zAJBgNVHRMEAjAAMCwGCWCGSAGG+EIBDQQfFh1PcGVu
U1NMIEdlbmVyYXRlZCBDZXJ0aWZpY2F0ZTAdBgNVHQ4EFgQUuqIsk7vfCkJ4zpT1
i1ysg1tFx4owgZwGA1UdIwSBlDCBkYAUpc03KTI1dldhx5rriqEuiOQbFvqhbqRs
MGoxCzAJBgNVBAYTAlNFMRIwEAYDVQQIEwlTdG9ja2hvbG0xDjAMBgNVBAcTBUtp
c3RhMQ0wCwYDVQQKEwRSSVNFMRUwEwYDVQQKEwxTZWN1cml0eSBMYWIxETAPBgNV
BAsTCDVHRW5zdXJlggkAzoT3BN3kizowDQYJKoZIhvcNAQEEBQADgYEADccv4Qw3
pIH2HLdoDCDVXwAQCP2IDzKT7Ucv8jegnOyGcM3Y+j54yGdzcMHDsEYcey1qwgly
h3BoFPeNXNpSFAkNQKrAEOP1tl44Wz5Fm+bG80Ajdm9fFGduw0aSEhBxHXFa/viF
5QWv7NoUcLg2oLDGxteK8VMTjgTHhIXxyfs=
-----END CERTIFICATE-----
