Certificate:
    Data:
        Version: 3 (0x2)
        Serial Number: 161 (0xa1)
    Signature Algorithm: md5WithRSAEncryption
        Issuer: C=SE, ST=Stockholm, L=Kista, O=RISE, O=Security Lab, OU=5GEnsure
        Validity
            Not Before: Apr  5 10:42:59 2019 GMT
            Not After : Apr  4 10:42:59 2020 GMT
        Subject: CN=openvswitch
        Subject Public Key Info:
            Public Key Algorithm: rsaEncryption
                Public-Key: (2048 bit)
                Modulus:
                    00:be:58:d4:a8:1d:0a:d4:b5:03:11:f5:37:bf:47:
                    0a:f6:77:1a:14:d6:18:0e:57:4a:2d:68:51:3f:88:
                    e3:ad:fb:82:d8:92:6d:82:73:65:f6:f0:1c:d8:78:
                    8e:45:4f:91:b6:b2:71:b3:53:28:33:12:23:6c:a9:
                    e7:2c:b8:b2:bb:4e:87:12:5d:36:b6:05:d3:88:b7:
                    a6:cf:83:a6:0b:b9:da:84:a2:90:6c:08:7d:dd:8f:
                    dd:ac:53:d0:b6:7a:33:f6:5e:69:cc:7c:06:2d:e8:
                    7d:c7:d2:29:49:1a:a2:6a:8f:da:c2:22:98:da:96:
                    89:b4:ab:82:42:4b:ae:ef:18:18:ca:98:e6:66:8a:
                    63:e7:47:dd:7f:51:c0:45:0a:9a:73:69:44:a7:ee:
                    ca:36:a4:f4:20:22:9e:85:62:07:20:33:1c:ec:3a:
                    55:6e:72:a1:7a:13:47:c0:13:da:4e:0e:08:21:cf:
                    7c:81:9c:2b:fc:0e:98:f0:c8:de:48:43:4b:46:04:
                    c7:6c:d2:87:7c:9d:42:9c:6c:33:2f:4d:4f:d0:e1:
                    39:5c:29:c2:07:7d:65:8c:89:ad:26:cb:04:a9:12:
                    51:0e:c1:8f:c0:2e:f3:e8:22:a7:8a:c1:33:99:2c:
                    b3:13:0d:87:2b:20:53:50:71:40:f5:cf:b4:ba:dd:
                    46:f5
                Exponent: 65537 (0x10001)
        X509v3 extensions:
            X509v3 Basic Constraints: 
                CA:FALSE
            Netscape Comment: 
                OpenSSL Generated Certificate
            X509v3 Subject Key Identifier: 
                EB:64:4B:36:91:A1:06:E3:5B:0D:DB:75:ED:D5:F0:C0:D1:2E:CE:0F
            X509v3 Authority Key Identifier: 
                keyid:A5:CD:37:29:32:35:76:57:61:C7:9A:EB:8A:A1:2E:88:E4:1B:16:FA
                DirName:/C=SE/ST=Stockholm/L=Kista/O=RISE/O=Security Lab/OU=5GEnsure
                serial:CE:84:F7:04:DD:E4:8B:3A

    Signature Algorithm: md5WithRSAEncryption
         cd:a4:34:4b:f0:1b:1e:91:c6:ef:7c:79:dd:b7:ac:eb:d4:71:
         8d:5a:8a:d1:81:2a:7f:a8:b5:91:6c:07:68:6c:18:ed:d4:af:
         dd:14:e6:95:de:2a:88:f4:73:cd:09:df:14:d0:1b:b9:46:6b:
         d6:9c:76:de:7c:58:4b:b2:5f:cb:a1:8c:3c:73:72:ad:26:3f:
         a2:59:5a:73:0f:9b:3e:30:f7:c6:3d:2e:b3:3e:50:de:fe:26:
         1a:59:89:40:7e:9b:be:f9:0f:ce:58:d5:48:c1:0b:33:af:f7:
         89:03:36:fc:14:8b:cb:bb:4a:dc:81:f7:df:0b:04:f1:05:1d:
         4b:17
-----BEGIN CERTIFICATE-----
MIIDdjCCAt+gAwIBAgICAKEwDQYJKoZIhvcNAQEEBQAwajELMAkGA1UEBhMCU0Ux
EjAQBgNVBAgTCVN0b2NraG9sbTEOMAwGA1UEBxMFS2lzdGExDTALBgNVBAoTBFJJ
U0UxFTATBgNVBAoTDFNlY3VyaXR5IExhYjERMA8GA1UECxMINUdFbnN1cmUwHhcN
MTkwNDA1MTA0MjU5WhcNMjAwNDA0MTA0MjU5WjAWMRQwEgYDVQQDEwtvcGVudnN3
aXRjaDCCASIwDQYJKoZIhvcNAQEBBQADggEPADCCAQoCggEBAL5Y1KgdCtS1AxH1
N79HCvZ3GhTWGA5XSi1oUT+I4637gtiSbYJzZfbwHNh4jkVPkbaycbNTKDMSI2yp
5yy4srtOhxJdNrYF04i3ps+Dpgu52oSikGwIfd2P3axT0LZ6M/Zeacx8Bi3ofcfS
KUkaomqP2sIimNqWibSrgkJLru8YGMqY5maKY+dH3X9RwEUKmnNpRKfuyjak9CAi
noViByAzHOw6VW5yoXoTR8AT2k4OCCHPfIGcK/wOmPDI3khDS0YEx2zSh3ydQpxs
My9NT9DhOVwpwgd9ZYyJrSbLBKkSUQ7Bj8Au8+gip4rBM5kssxMNhysgU1BxQPXP
tLrdRvUCAwEAAaOB+jCB9zAJBgNVHRMEAjAAMCwGCWCGSAGG+EIBDQQfFh1PcGVu
U1NMIEdlbmVyYXRlZCBDZXJ0aWZpY2F0ZTAdBgNVHQ4EFgQU62RLNpGhBuNbDdt1
7dXwwNEuzg8wgZwGA1UdIwSBlDCBkYAUpc03KTI1dldhx5rriqEuiOQbFvqhbqRs
MGoxCzAJBgNVBAYTAlNFMRIwEAYDVQQIEwlTdG9ja2hvbG0xDjAMBgNVBAcTBUtp
c3RhMQ0wCwYDVQQKEwRSSVNFMRUwEwYDVQQKEwxTZWN1cml0eSBMYWIxETAPBgNV
BAsTCDVHRW5zdXJlggkAzoT3BN3kizowDQYJKoZIhvcNAQEEBQADgYEAzaQ0S/Ab
HpHG73x53bes69RxjVqK0YEqf6i1kWwHaGwY7dSv3RTmld4qiPRzzQnfFNAbuUZr
1px23nxYS7Jfy6GMPHNyrSY/ollacw+bPjD3xj0usz5Q3v4mGlmJQH6bvvkPzljV
SMELM6/3iQM2/BSLy7tK3IH33wsE8QUdSxc=
-----END CERTIFICATE-----
