Certificate:
    Data:
        Version: 3 (0x2)
        Serial Number: 254 (0xfe)
    Signature Algorithm: md5WithRSAEncryption
        Issuer: C=SE, ST=Stockholm, L=Kista, O=RISE, O=Security Lab, OU=5GEnsure, CN=JAKOB/emailAddress=jak@awd.se
        Validity
            Not Before: Apr 18 12:57:48 2019 GMT
            Not After : Apr 17 12:57:48 2020 GMT
        Subject: C=SE, ST=Stockholm, L=Kista, O=RISE, O=Security Lab, OU=5GEnsure, CN=OVS/emailAddress=awawd@awdawd.se
        Subject Public Key Info:
            Public Key Algorithm: rsaEncryption
                Public-Key: (2048 bit)
                Modulus:
                    00:d8:d1:9d:c4:e5:96:c5:f5:56:76:f8:df:f9:ba:
                    45:ed:be:3c:7a:56:7a:9a:47:f7:26:ca:19:e1:b7:
                    e0:23:14:50:b4:4f:e3:0c:ef:f6:19:23:3d:35:b2:
                    4d:0d:86:18:d5:4d:d9:13:77:94:7d:ed:78:62:84:
                    8d:50:5e:f4:ae:a6:05:ce:ae:ed:ca:b2:47:19:73:
                    12:d9:da:ff:66:0b:e4:12:1c:6a:55:cf:c1:15:ec:
                    21:62:05:f0:0c:0c:7c:1f:23:da:b4:7c:1a:49:f6:
                    d6:7a:57:7c:d5:c2:48:bf:67:61:d7:87:7a:54:e5:
                    cf:ad:e3:7d:fe:13:e3:39:95:b1:90:44:51:3f:6d:
                    f9:df:0c:d8:4a:3e:48:3c:50:64:bd:a9:ec:ff:32:
                    5e:89:e4:8f:5c:82:87:40:57:d8:28:18:e9:f5:72:
                    ce:96:18:e0:eb:c5:0e:e6:68:bb:fd:3f:a6:79:fb:
                    fb:89:89:df:dd:b9:26:bf:35:a1:aa:73:89:d6:7a:
                    d1:5a:16:85:67:cf:ef:9c:6c:f4:98:67:62:00:d4:
                    cc:bb:a6:a8:43:06:19:38:18:95:a3:48:77:42:09:
                    6f:47:65:bb:ac:51:5d:40:ab:8e:cb:be:72:f2:a1:
                    d8:75:be:fa:dd:42:68:6c:a0:68:c1:f0:95:49:90:
                    28:7b
                Exponent: 65537 (0x10001)
        X509v3 extensions:
            X509v3 Basic Constraints: 
                CA:FALSE
            Netscape Comment: 
                OpenSSL Generated Certificate
            X509v3 Subject Key Identifier: 
                92:FA:0E:3B:03:0C:1B:8B:05:4D:DA:9B:E3:ED:DF:E1:6B:EE:AC:5E
            X509v3 Authority Key Identifier: 
                keyid:B4:D7:AB:EC:E5:2E:6A:AC:E7:34:05:2A:49:3C:14:26:91:D2:35:CE
                DirName:/C=SE/ST=Stockholm/L=Kista/O=RISE/O=Security Lab/OU=5GEnsure/CN=JAKOB/emailAddress=jak@awd.se
                serial:CD:C2:FA:57:9F:18:2A:21

    Signature Algorithm: md5WithRSAEncryption
         90:97:f2:6c:1a:d2:db:b7:7e:84:79:2a:e5:0a:5e:da:30:d8:
         12:6f:40:42:54:90:51:89:3d:df:0e:67:24:f6:67:72:07:fd:
         5a:1f:d7:4b:72:76:60:50:cc:6d:00:b9:14:ea:4d:93:a3:cb:
         c8:06:83:dc:db:e3:be:7e:90:56:f6:31:64:63:7e:6a:72:34:
         46:dc:e3:f9:a7:0d:0e:64:c7:54:0f:c8:82:6c:e0:38:57:d8:
         4d:79:92:58:dc:0f:b2:49:6e:e1:3e:6d:a6:9b:53:fc:93:b6:
         fa:b6:82:ac:5c:ec:41:23:e1:4a:dd:9e:df:40:36:d2:b3:3e:
         72:e5
-----BEGIN CERTIFICATE-----
MIIEVTCCA76gAwIBAgICAP4wDQYJKoZIhvcNAQEEBQAwgZUxCzAJBgNVBAYTAlNF
MRIwEAYDVQQIEwlTdG9ja2hvbG0xDjAMBgNVBAcTBUtpc3RhMQ0wCwYDVQQKEwRS
SVNFMRUwEwYDVQQKEwxTZWN1cml0eSBMYWIxETAPBgNVBAsTCDVHRW5zdXJlMQ4w
DAYDVQQDEwVKQUtPQjEZMBcGCSqGSIb3DQEJARYKamFrQGF3ZC5zZTAeFw0xOTA0
MTgxMjU3NDhaFw0yMDA0MTcxMjU3NDhaMIGYMQswCQYDVQQGEwJTRTESMBAGA1UE
CBMJU3RvY2tob2xtMQ4wDAYDVQQHEwVLaXN0YTENMAsGA1UEChMEUklTRTEVMBMG
A1UEChMMU2VjdXJpdHkgTGFiMREwDwYDVQQLEwg1R0Vuc3VyZTEMMAoGA1UEAxMD
T1ZTMR4wHAYJKoZIhvcNAQkBFg9hd2F3ZEBhd2Rhd2Quc2UwggEiMA0GCSqGSIb3
DQEBAQUAA4IBDwAwggEKAoIBAQDY0Z3E5ZbF9VZ2+N/5ukXtvjx6VnqaR/cmyhnh
t+AjFFC0T+MM7/YZIz01sk0NhhjVTdkTd5R97XhihI1QXvSupgXOru3KskcZcxLZ
2v9mC+QSHGpVz8EV7CFiBfAMDHwfI9q0fBpJ9tZ6V3zVwki/Z2HXh3pU5c+t433+
E+M5lbGQRFE/bfnfDNhKPkg8UGS9qez/Ml6J5I9cgodAV9goGOn1cs6WGODrxQ7m
aLv9P6Z5+/uJid/duSa/NaGqc4nWetFaFoVnz++cbPSYZ2IA1My7pqhDBhk4GJWj
SHdCCW9HZbusUV1Aq47LvnLyodh1vvrdQmhsoGjB8JVJkCh7AgMBAAGjggEpMIIB
JTAJBgNVHRMEAjAAMCwGCWCGSAGG+EIBDQQfFh1PcGVuU1NMIEdlbmVyYXRlZCBD
ZXJ0aWZpY2F0ZTAdBgNVHQ4EFgQUkvoOOwMMG4sFTdqb4+3f4WvurF4wgcoGA1Ud
IwSBwjCBv4AUtNer7OUuaqznNAUqSTwUJpHSNc6hgZukgZgwgZUxCzAJBgNVBAYT
AlNFMRIwEAYDVQQIEwlTdG9ja2hvbG0xDjAMBgNVBAcTBUtpc3RhMQ0wCwYDVQQK
EwRSSVNFMRUwEwYDVQQKEwxTZWN1cml0eSBMYWIxETAPBgNVBAsTCDVHRW5zdXJl
MQ4wDAYDVQQDEwVKQUtPQjEZMBcGCSqGSIb3DQEJARYKamFrQGF3ZC5zZYIJAM3C
+lefGCohMA0GCSqGSIb3DQEBBAUAA4GBAJCX8mwa0tu3foR5KuUKXtow2BJvQEJU
kFGJPd8OZyT2Z3IH/Vof10tydmBQzG0AuRTqTZOjy8gGg9zb475+kFb2MWRjfmpy
NEbc4/mnDQ5kx1QPyIJs4DhX2E15kljcD7JJbuE+baabU/yTtvq2gqxc7EEj4Urd
nt9ANtKzPnLl
-----END CERTIFICATE-----
