Certificate:
    Data:
        Version: 3 (0x2)
        Serial Number: 301 (0x12d)
    Signature Algorithm: md5WithRSAEncryption
        Issuer: C=SE, ST=Stockholm, L=Kista, O=RISE, O=Security Lab, OU=5GEnsure, CN=JAKOB/emailAddress=jak@awd.se
        Validity
            Not Before: Apr 22 11:26:18 2019 GMT
            Not After : Apr 21 11:26:18 2020 GMT
        Subject: CN=openvswitch
        Subject Public Key Info:
            Public Key Algorithm: rsaEncryption
                Public-Key: (2048 bit)
                Modulus:
                    00:a4:4f:76:39:82:05:f4:d4:c2:ae:65:89:b7:1d:
                    86:1f:b2:18:b1:97:f6:b8:d9:c4:7e:20:d6:d0:8b:
                    40:d6:34:82:9e:aa:d3:10:56:60:40:84:58:f9:40:
                    ed:3c:57:f7:b6:d4:77:18:bf:6d:b3:21:bd:81:43:
                    b2:d6:78:cb:07:61:10:70:3b:fb:67:58:99:20:5e:
                    4e:64:5b:0a:9b:dd:e0:95:ec:4d:3c:46:38:57:44:
                    a2:7b:14:d5:aa:8b:59:5a:0b:23:4a:57:f7:70:c0:
                    c3:06:99:5f:d4:06:16:ea:a1:91:80:f9:cb:de:91:
                    38:dc:f6:3a:31:46:1a:c6:f6:25:45:00:31:cb:62:
                    27:a3:11:cc:1a:7a:b4:cc:49:f7:cb:af:e9:b9:9b:
                    a8:08:19:f9:6c:55:b3:af:a6:9d:1d:f2:6f:09:fd:
                    c0:cd:08:5a:21:da:ec:7a:6a:ee:29:d2:21:9f:a8:
                    1f:68:bc:ce:15:67:62:f4:59:9c:0f:40:a1:ac:d0:
                    62:65:d0:fc:a7:f4:c7:7f:fd:b8:9d:bd:b2:58:f5:
                    3a:43:87:40:f0:86:c7:cc:d2:f5:18:80:13:5e:30:
                    83:ea:1d:49:8a:2a:20:34:91:3d:c6:86:67:85:d3:
                    82:13:35:9d:2c:cd:6b:aa:a9:d4:42:75:fe:89:15:
                    19:9f
                Exponent: 65537 (0x10001)
        X509v3 extensions:
            X509v3 Basic Constraints:
                CA:FALSE
            Netscape Comment:
                OpenSSL Generated Certificate
            X509v3 Subject Key Identifier:
                96:98:6B:0D:13:CC:C0:E9:F3:F7:54:66:14:34:4B:60:20:E9:34:C7
            X509v3 Authority Key Identifier:
                keyid:B4:D7:AB:EC:E5:2E:6A:AC:E7:34:05:2A:49:3C:14:26:91:D2:35:CE
                DirName:/C=SE/ST=Stockholm/L=Kista/O=RISE/O=Security Lab/OU=5GEnsure/CN=JAKOB/emailAddress=jak@awd.se
                serial:CD:C2:FA:57:9F:18:2A:21

    Signature Algorithm: md5WithRSAEncryption
         72:d6:f7:c6:52:1a:50:5b:16:c7:db:23:a1:91:f0:35:22:e3:
         d1:0a:75:61:56:9c:eb:b8:10:70:7c:33:7c:b2:2a:9d:e4:8d:
         68:97:88:9f:94:4e:46:46:25:64:60:7f:82:6c:69:a2:d4:48:
         e2:11:27:f5:66:1b:b9:bf:60:59:22:02:52:e8:d8:a8:f7:29:
         9f:f1:c3:1b:4a:13:66:66:03:f0:d7:49:84:d7:62:cf:ea:f2:
         1a:19:a0:b0:bb:c6:41:db:99:09:39:21:0a:26:39:40:ce:18:
         6e:e6:84:4e:f5:6c:ef:b2:dd:3d:45:90:10:48:71:5e:fd:af:
         bd:72
-----BEGIN CERTIFICATE-----
MIID0jCCAzugAwIBAgICAS0wDQYJKoZIhvcNAQEEBQAwgZUxCzAJBgNVBAYTAlNF
MRIwEAYDVQQIEwlTdG9ja2hvbG0xDjAMBgNVBAcTBUtpc3RhMQ0wCwYDVQQKEwRS
SVNFMRUwEwYDVQQKEwxTZWN1cml0eSBMYWIxETAPBgNVBAsTCDVHRW5zdXJlMQ4w
DAYDVQQDEwVKQUtPQjEZMBcGCSqGSIb3DQEJARYKamFrQGF3ZC5zZTAeFw0xOTA0
MjIxMTI2MThaFw0yMDA0MjExMTI2MThaMBYxFDASBgNVBAMTC29wZW52c3dpdGNo
MIIBIjANBgkqhkiG9w0BAQEFAAOCAQ8AMIIBCgKCAQEApE92OYIF9NTCrmWJtx2G
H7IYsZf2uNnEfiDW0ItA1jSCnqrTEFZgQIRY+UDtPFf3ttR3GL9tsyG9gUOy1njL
B2EQcDv7Z1iZIF5OZFsKm93glexNPEY4V0SiexTVqotZWgsjSlf3cMDDBplf1AYW
6qGRgPnL3pE43PY6MUYaxvYlRQAxy2InoxHMGnq0zEn3y6/puZuoCBn5bFWzr6ad
HfJvCf3AzQhaIdrsemruKdIhn6gfaLzOFWdi9FmcD0ChrNBiZdD8p/THf/24nb2y
WPU6Q4dA8IbHzNL1GIATXjCD6h1JiiogNJE9xoZnhdOCEzWdLM1rqqnUQnX+iRUZ
nwIDAQABo4IBKTCCASUwCQYDVR0TBAIwADAsBglghkgBhvhCAQ0EHxYdT3BlblNT
TCBHZW5lcmF0ZWQgQ2VydGlmaWNhdGUwHQYDVR0OBBYEFJaYaw0TzMDp8/dUZhQ0
S2Ag6TTHMIHKBgNVHSMEgcIwgb+AFLTXq+zlLmqs5zQFKkk8FCaR0jXOoYGbpIGY
MIGVMQswCQYDVQQGEwJTRTESMBAGA1UECBMJU3RvY2tob2xtMQ4wDAYDVQQHEwVL
aXN0YTENMAsGA1UEChMEUklTRTEVMBMGA1UEChMMU2VjdXJpdHkgTGFiMREwDwYD
VQQLEwg1R0Vuc3VyZTEOMAwGA1UEAxMFSkFLT0IxGTAXBgkqhkiG9w0BCQEWCmph
a0Bhd2Quc2WCCQDNwvpXnxgqITANBgkqhkiG9w0BAQQFAAOBgQBy1vfGUhpQWxbH
2yOhkfA1IuPRCnVhVpzruBBwfDN8siqd5I1ol4iflE5GRiVkYH+CbGmi1EjiESf1
Zhu5v2BZIgJS6Nio9ymf8cMbShNmZgPw10mE12LP6vIaGaCwu8ZB25kJOSEKJjlA
zhhu5oRO9Wzvst09RZAQSHFe/a+9cg==
-----END CERTIFICATE-----
